
SDrive.elf:     file format elf32-avr

Sections:
Idx Name          Size      VMA       LMA       File off  Algn
  0 .text         00001e88  00000000  00000000  000000b4  2**1
                  CONTENTS, ALLOC, LOAD, READONLY, CODE
  1 .data         00000000  00800060  00001e88  00001f3c  2**0
                  CONTENTS, ALLOC, LOAD, DATA
  2 .bss          00000384  00800060  00800060  00001f3c  2**0
                  ALLOC
  3 .eeprom       00000149  00810000  00810000  00001f3c  2**0
                  CONTENTS, ALLOC, LOAD, DATA
  4 .stab         0000075c  00000000  00000000  00002088  2**2
                  CONTENTS, READONLY, DEBUGGING
  5 .stabstr      00000083  00000000  00000000  000027e4  2**0
                  CONTENTS, READONLY, DEBUGGING
  6 .comment      00000011  00000000  00000000  00002867  2**0
                  CONTENTS, READONLY
  7 .debug_aranges 00000090  00000000  00000000  00002878  2**3
                  CONTENTS, READONLY, DEBUGGING
  8 .debug_info   000001d0  00000000  00000000  00002908  2**0
                  CONTENTS, READONLY, DEBUGGING
  9 .debug_abbrev 0000004e  00000000  00000000  00002ad8  2**0
                  CONTENTS, READONLY, DEBUGGING
 10 .debug_line   00000e48  00000000  00000000  00002b26  2**0
                  CONTENTS, READONLY, DEBUGGING
 11 .debug_ranges 00000028  00000000  00000000  00003970  2**3
                  CONTENTS, READONLY, DEBUGGING

Disassembly of section .text:

00000000 <__vectors>:
       0:	52 c0       	rjmp	.+164    	; 0xa6 <__ctors_end>
       2:	61 c0       	rjmp	.+194    	; 0xc6 <__bad_interrupt>
       4:	60 c0       	rjmp	.+192    	; 0xc6 <__bad_interrupt>
       6:	5f c0       	rjmp	.+190    	; 0xc6 <__bad_interrupt>
       8:	5e c0       	rjmp	.+188    	; 0xc6 <__bad_interrupt>
       a:	5d c0       	rjmp	.+186    	; 0xc6 <__bad_interrupt>
       c:	5c c0       	rjmp	.+184    	; 0xc6 <__bad_interrupt>
       e:	5b c0       	rjmp	.+182    	; 0xc6 <__bad_interrupt>
      10:	5a c0       	rjmp	.+180    	; 0xc6 <__bad_interrupt>
      12:	59 c0       	rjmp	.+178    	; 0xc6 <__bad_interrupt>
      14:	58 c0       	rjmp	.+176    	; 0xc6 <__bad_interrupt>
      16:	57 c0       	rjmp	.+174    	; 0xc6 <__bad_interrupt>
      18:	56 c0       	rjmp	.+172    	; 0xc6 <__bad_interrupt>
      1a:	55 c0       	rjmp	.+170    	; 0xc6 <__bad_interrupt>
      1c:	54 c0       	rjmp	.+168    	; 0xc6 <__bad_interrupt>
      1e:	53 c0       	rjmp	.+166    	; 0xc6 <__bad_interrupt>
      20:	52 c0       	rjmp	.+164    	; 0xc6 <__bad_interrupt>
      22:	51 c0       	rjmp	.+162    	; 0xc6 <__bad_interrupt>
      24:	50 c0       	rjmp	.+160    	; 0xc6 <__bad_interrupt>
      26:	0a cb       	rjmp	.-2540   	; 0xfffff63c <__eeprom_end+0xff7ef4f3>
      28:	40 cb       	rjmp	.-2432   	; 0xfffff6aa <__eeprom_end+0xff7ef561>
      2a:	4b cb       	rjmp	.-2410   	; 0xfffff6c2 <__eeprom_end+0xff7ef579>
      2c:	b6 ce       	rjmp	.-660    	; 0xfffffd9a <__eeprom_end+0xff7efc51>
      2e:	b5 ce       	rjmp	.-662    	; 0xfffffd9a <__eeprom_end+0xff7efc51>
      30:	b4 ce       	rjmp	.-664    	; 0xfffffd9a <__eeprom_end+0xff7efc51>
      32:	b3 ce       	rjmp	.-666    	; 0xfffffd9a <__eeprom_end+0xff7efc51>
      34:	b2 ce       	rjmp	.-668    	; 0xfffffd9a <__eeprom_end+0xff7efc51>
      36:	b1 ce       	rjmp	.-670    	; 0xfffffd9a <__eeprom_end+0xff7efc51>
      38:	b0 ce       	rjmp	.-672    	; 0xfffffd9a <__eeprom_end+0xff7efc51>
      3a:	af ce       	rjmp	.-674    	; 0xfffffd9a <__eeprom_end+0xff7efc51>
      3c:	ae ce       	rjmp	.-676    	; 0xfffffd9a <__eeprom_end+0xff7efc51>
      3e:	ad ce       	rjmp	.-678    	; 0xfffffd9a <__eeprom_end+0xff7efc51>
      40:	ac ce       	rjmp	.-680    	; 0xfffffd9a <__eeprom_end+0xff7efc51>
      42:	ab ce       	rjmp	.-682    	; 0xfffffd9a <__eeprom_end+0xff7efc51>
      44:	aa ce       	rjmp	.-684    	; 0xfffffd9a <__eeprom_end+0xff7efc51>
      46:	a9 ce       	rjmp	.-686    	; 0xfffffd9a <__eeprom_end+0xff7efc51>
      48:	a8 ce       	rjmp	.-688    	; 0xfffffd9a <__eeprom_end+0xff7efc51>
      4a:	a7 ce       	rjmp	.-690    	; 0xfffffd9a <__eeprom_end+0xff7efc51>
      4c:	a6 ce       	rjmp	.-692    	; 0xfffffd9a <__eeprom_end+0xff7efc51>
      4e:	a5 ce       	rjmp	.-694    	; 0xfffffd9a <__eeprom_end+0xff7efc51>
      50:	a4 ce       	rjmp	.-696    	; 0xfffffd9a <__eeprom_end+0xff7efc51>
      52:	a3 ce       	rjmp	.-698    	; 0xfffffd9a <__eeprom_end+0xff7efc51>
      54:	a2 ce       	rjmp	.-700    	; 0xfffffd9a <__eeprom_end+0xff7efc51>
      56:	a1 ce       	rjmp	.-702    	; 0xfffffd9a <__eeprom_end+0xff7efc51>
      58:	a0 ce       	rjmp	.-704    	; 0xfffffd9a <__eeprom_end+0xff7efc51>
      5a:	36 cb       	rjmp	.-2452   	; 0xfffff6c8 <__eeprom_end+0xff7ef57f>
      5c:	4c cb       	rjmp	.-2408   	; 0xfffff6f6 <__eeprom_end+0xff7ef5ad>
      5e:	52 cb       	rjmp	.-2396   	; 0xfffff704 <__eeprom_end+0xff7ef5bb>
      60:	5f cb       	rjmp	.-2370   	; 0xfffff720 <__eeprom_end+0xff7ef5d7>
      62:	73 cb       	rjmp	.-2330   	; 0xfffff74a <__eeprom_end+0xff7ef601>
      64:	88 cb       	rjmp	.-2288   	; 0xfffff776 <__eeprom_end+0xff7ef62d>
      66:	a6 cb       	rjmp	.-2228   	; 0xfffff7b4 <__eeprom_end+0xff7ef66b>
      68:	c0 cb       	rjmp	.-2176   	; 0xfffff7ea <__eeprom_end+0xff7ef6a1>
      6a:	c7 cb       	rjmp	.-2162   	; 0xfffff7fa <__eeprom_end+0xff7ef6b1>
      6c:	d4 cb       	rjmp	.-2136   	; 0xfffff816 <__eeprom_end+0xff7ef6cd>
      6e:	f4 cb       	rjmp	.-2072   	; 0xfffff858 <__eeprom_end+0xff7ef70f>
      70:	f3 cb       	rjmp	.-2074   	; 0xfffff858 <__eeprom_end+0xff7ef70f>
      72:	c9 cc       	rjmp	.-1646   	; 0xfffffa06 <__eeprom_end+0xff7ef8bd>
      74:	c8 cc       	rjmp	.-1648   	; 0xfffffa06 <__eeprom_end+0xff7ef8bd>
      76:	c7 cc       	rjmp	.-1650   	; 0xfffffa06 <__eeprom_end+0xff7ef8bd>
      78:	c6 cc       	rjmp	.-1652   	; 0xfffffa06 <__eeprom_end+0xff7ef8bd>
      7a:	dd ca       	rjmp	.-2630   	; 0xfffff636 <__eeprom_end+0xff7ef4ed>
      7c:	f8 cc       	rjmp	.-1552   	; 0xfffffa6e <__eeprom_end+0xff7ef925>
      7e:	f2 cb       	rjmp	.-2076   	; 0xfffff864 <__eeprom_end+0xff7ef71b>
      80:	01 cc       	rjmp	.-2046   	; 0xfffff884 <__eeprom_end+0xff7ef73b>
      82:	9d cd       	rjmp	.-1222   	; 0xfffffbbe <__eeprom_end+0xff7efa75>
      84:	a6 cd       	rjmp	.-1204   	; 0xfffffbd2 <__eeprom_end+0xff7efa89>
      86:	7f cd       	rjmp	.-1282   	; 0xfffffb86 <__eeprom_end+0xff7efa3d>
      88:	7e cd       	rjmp	.-1284   	; 0xfffffb86 <__eeprom_end+0xff7efa3d>
      8a:	7d cd       	rjmp	.-1286   	; 0xfffffb86 <__eeprom_end+0xff7efa3d>
      8c:	7c cd       	rjmp	.-1288   	; 0xfffffb86 <__eeprom_end+0xff7efa3d>
      8e:	7b cd       	rjmp	.-1290   	; 0xfffffb86 <__eeprom_end+0xff7efa3d>
      90:	84 ce       	rjmp	.-760    	; 0xfffffd9a <__eeprom_end+0xff7efc51>
      92:	83 ce       	rjmp	.-762    	; 0xfffffd9a <__eeprom_end+0xff7efc51>
      94:	82 ce       	rjmp	.-764    	; 0xfffffd9a <__eeprom_end+0xff7efc51>
      96:	81 ce       	rjmp	.-766    	; 0xfffffd9a <__eeprom_end+0xff7efc51>
      98:	80 ce       	rjmp	.-768    	; 0xfffffd9a <__eeprom_end+0xff7efc51>
      9a:	7f ce       	rjmp	.-770    	; 0xfffffd9a <__eeprom_end+0xff7efc51>
      9c:	7e ce       	rjmp	.-772    	; 0xfffffd9a <__eeprom_end+0xff7efc51>
      9e:	7d ce       	rjmp	.-774    	; 0xfffffd9a <__eeprom_end+0xff7efc51>
      a0:	ac cd       	rjmp	.-1192   	; 0xfffffbfa <__eeprom_end+0xff7efab1>
      a2:	e3 cd       	rjmp	.-1082   	; 0xfffffc6a <__eeprom_end+0xff7efb21>
      a4:	70 cd       	rjmp	.-1312   	; 0xfffffb86 <__eeprom_end+0xff7efa3d>

000000a6 <__ctors_end>:
      a6:	11 24       	eor	r1, r1
      a8:	1f be       	out	0x3f, r1	; 63
      aa:	cf e5       	ldi	r28, 0x5F	; 95
      ac:	d4 e0       	ldi	r29, 0x04	; 4
      ae:	de bf       	out	0x3e, r29	; 62
      b0:	cd bf       	out	0x3d, r28	; 61

000000b2 <__do_clear_bss>:
      b2:	13 e0       	ldi	r17, 0x03	; 3
      b4:	a0 e6       	ldi	r26, 0x60	; 96
      b6:	b0 e0       	ldi	r27, 0x00	; 0
      b8:	01 c0       	rjmp	.+2      	; 0xbc <.do_clear_bss_start>

000000ba <.do_clear_bss_loop>:
      ba:	1d 92       	st	X+, r1

000000bc <.do_clear_bss_start>:
      bc:	a4 3e       	cpi	r26, 0xE4	; 228
      be:	b1 07       	cpc	r27, r17
      c0:	e1 f7       	brne	.-8      	; 0xba <.do_clear_bss_loop>
      c2:	06 d6       	rcall	.+3084   	; 0xcd0 <main>
      c4:	df ce       	rjmp	.-578    	; 0xfffffe84 <__eeprom_end+0xff7efd3b>

000000c6 <__bad_interrupt>:
      c6:	9c cf       	rjmp	.-200    	; 0x0 <__vectors>

000000c8 <get_checksum>:
      c8:	fc 01       	movw	r30, r24
      ca:	68 0f       	add	r22, r24
      cc:	79 1f       	adc	r23, r25
      ce:	80 e0       	ldi	r24, 0x00	; 0
      d0:	e6 17       	cp	r30, r22
      d2:	f7 07       	cpc	r31, r23
      d4:	39 f0       	breq	.+14     	; 0xe4 <get_checksum+0x1c>
      d6:	91 91       	ld	r25, Z+
      d8:	98 0f       	add	r25, r24
      da:	98 17       	cp	r25, r24
      dc:	08 f4       	brcc	.+2      	; 0xe0 <get_checksum+0x18>
      de:	9f 5f       	subi	r25, 0xFF	; 255
      e0:	89 2f       	mov	r24, r25
      e2:	f6 cf       	rjmp	.-20     	; 0xd0 <get_checksum+0x8>
      e4:	08 95       	ret

000000e6 <USART_Init>:
      e6:	5d 9b       	sbis	0x0b, 5	; 11
      e8:	fe cf       	rjmp	.-4      	; 0xe6 <USART_Init>
      ea:	10 bc       	out	0x20, r1	; 32
      ec:	89 b9       	out	0x09, r24	; 9
      ee:	80 e2       	ldi	r24, 0x20	; 32
      f0:	8b b9       	out	0x0b, r24	; 11
      f2:	88 e1       	ldi	r24, 0x18	; 24
      f4:	8a b9       	out	0x0a, r24	; 10
      f6:	86 e8       	ldi	r24, 0x86	; 134
      f8:	80 bd       	out	0x20, r24	; 32
      fa:	5f 9b       	sbis	0x0b, 7	; 11
      fc:	02 c0       	rjmp	.+4      	; 0x102 <USART_Init+0x1c>
      fe:	8c b1       	in	r24, 0x0c	; 12
     100:	fc cf       	rjmp	.-8      	; 0xfa <USART_Init+0x14>
     102:	08 95       	ret

00000104 <USART_Transmit_Byte>:
     104:	5d 9b       	sbis	0x0b, 5	; 11
     106:	fe cf       	rjmp	.-4      	; 0x104 <USART_Transmit_Byte>
     108:	8c b9       	out	0x0c, r24	; 12
     10a:	08 95       	ret

0000010c <USART_Receive_Byte>:
     10c:	5f 9b       	sbis	0x0b, 7	; 11
     10e:	fe cf       	rjmp	.-4      	; 0x10c <USART_Receive_Byte>
     110:	8c b1       	in	r24, 0x0c	; 12
     112:	08 95       	ret

00000114 <USART_Send_Buffer>:
     114:	0f 93       	push	r16
     116:	1f 93       	push	r17
     118:	cf 93       	push	r28
     11a:	df 93       	push	r29
     11c:	8b 01       	movw	r16, r22
     11e:	ec 01       	movw	r28, r24
     120:	08 0f       	add	r16, r24
     122:	19 1f       	adc	r17, r25
     124:	c0 17       	cp	r28, r16
     126:	d1 07       	cpc	r29, r17
     128:	19 f0       	breq	.+6      	; 0x130 <USART_Send_Buffer+0x1c>
     12a:	89 91       	ld	r24, Y+
     12c:	eb df       	rcall	.-42     	; 0x104 <USART_Transmit_Byte>
     12e:	fa cf       	rjmp	.-12     	; 0x124 <USART_Send_Buffer+0x10>
     130:	df 91       	pop	r29
     132:	cf 91       	pop	r28
     134:	1f 91       	pop	r17
     136:	0f 91       	pop	r16
     138:	08 95       	ret

0000013a <USART_Get_Buffer_And_Check>:
     13a:	cf 93       	push	r28
     13c:	fc 01       	movw	r30, r24
     13e:	9c 01       	movw	r18, r24
     140:	26 0f       	add	r18, r22
     142:	37 1f       	adc	r19, r23
     144:	50 e0       	ldi	r21, 0x00	; 0
     146:	c0 91 dc 03 	lds	r28, 0x03DC
     14a:	a0 b3       	in	r26, 0x10	; 16
     14c:	a0 71       	andi	r26, 0x10	; 16
     14e:	b0 e0       	ldi	r27, 0x00	; 0
     150:	a4 17       	cp	r26, r20
     152:	b5 07       	cpc	r27, r21
     154:	89 f4       	brne	.+34     	; 0x178 <USART_Get_Buffer_And_Check+0x3e>
     156:	a0 b3       	in	r26, 0x10	; 16
     158:	a4 7e       	andi	r26, 0xE4	; 228
     15a:	ac 13       	cpse	r26, r28
     15c:	0f c0       	rjmp	.+30     	; 0x17c <USART_Get_Buffer_And_Check+0x42>
     15e:	5f 9b       	sbis	0x0b, 7	; 11
     160:	f4 cf       	rjmp	.-24     	; 0x14a <USART_Get_Buffer_And_Check+0x10>
     162:	cc b1       	in	r28, 0x0c	; 12
     164:	e2 17       	cp	r30, r18
     166:	f3 07       	cpc	r31, r19
     168:	29 f4       	brne	.+10     	; 0x174 <USART_Get_Buffer_And_Check+0x3a>
     16a:	ae df       	rcall	.-164    	; 0xc8 <get_checksum>
     16c:	c8 17       	cp	r28, r24
     16e:	41 f0       	breq	.+16     	; 0x180 <USART_Get_Buffer_And_Check+0x46>
     170:	80 e8       	ldi	r24, 0x80	; 128
     172:	07 c0       	rjmp	.+14     	; 0x182 <USART_Get_Buffer_And_Check+0x48>
     174:	c1 93       	st	Z+, r28
     176:	e7 cf       	rjmp	.-50     	; 0x146 <USART_Get_Buffer_And_Check+0xc>
     178:	81 e0       	ldi	r24, 0x01	; 1
     17a:	03 c0       	rjmp	.+6      	; 0x182 <USART_Get_Buffer_And_Check+0x48>
     17c:	82 e0       	ldi	r24, 0x02	; 2
     17e:	01 c0       	rjmp	.+2      	; 0x182 <USART_Get_Buffer_And_Check+0x48>
     180:	80 e0       	ldi	r24, 0x00	; 0
     182:	cf 91       	pop	r28
     184:	08 95       	ret

00000186 <USART_Get_buffer_and_check_and_send_ACK_or_NACK>:
     186:	cf 93       	push	r28
     188:	df 93       	push	r29
     18a:	1f 92       	push	r1
     18c:	cd b7       	in	r28, 0x3d	; 61
     18e:	de b7       	in	r29, 0x3e	; 62
     190:	40 e1       	ldi	r20, 0x10	; 16
     192:	d3 df       	rcall	.-90     	; 0x13a <USART_Get_Buffer_And_Check>
     194:	89 83       	std	Y+1, r24	; 0x01
     196:	91 d5       	rcall	.+2850   	; 0xcba <Delay1000us>
     198:	89 81       	ldd	r24, Y+1	; 0x01
     19a:	88 23       	and	r24, r24
     19c:	21 f0       	breq	.+8      	; 0x1a6 <USART_Get_buffer_and_check_and_send_ACK_or_NACK+0x20>
     19e:	8e e4       	ldi	r24, 0x4E	; 78
     1a0:	b1 df       	rcall	.-158    	; 0x104 <USART_Transmit_Byte>
     1a2:	8f ef       	ldi	r24, 0xFF	; 255
     1a4:	03 c0       	rjmp	.+6      	; 0x1ac <USART_Get_buffer_and_check_and_send_ACK_or_NACK+0x26>
     1a6:	81 e4       	ldi	r24, 0x41	; 65
     1a8:	ad df       	rcall	.-166    	; 0x104 <USART_Transmit_Byte>
     1aa:	80 e0       	ldi	r24, 0x00	; 0
     1ac:	0f 90       	pop	r0
     1ae:	df 91       	pop	r29
     1b0:	cf 91       	pop	r28
     1b2:	08 95       	ret

000001b4 <USART_Send_cmpl_and_atari_sector_buffer_and_check_sum>:
     1b4:	cf 93       	push	r28
     1b6:	df 93       	push	r29
     1b8:	ec 01       	movw	r28, r24
     1ba:	7d d5       	rcall	.+2810   	; 0xcb6 <Delay800us>
     1bc:	83 e4       	ldi	r24, 0x43	; 67
     1be:	a2 df       	rcall	.-188    	; 0x104 <USART_Transmit_Byte>
     1c0:	78 d5       	rcall	.+2800   	; 0xcb2 <Delay200us>
     1c2:	be 01       	movw	r22, r28
     1c4:	86 ec       	ldi	r24, 0xC6	; 198
     1c6:	92 e0       	ldi	r25, 0x02	; 2
     1c8:	a5 df       	rcall	.-182    	; 0x114 <USART_Send_Buffer>
     1ca:	be 01       	movw	r22, r28
     1cc:	86 ec       	ldi	r24, 0xC6	; 198
     1ce:	92 e0       	ldi	r25, 0x02	; 2
     1d0:	7b df       	rcall	.-266    	; 0xc8 <get_checksum>
     1d2:	df 91       	pop	r29
     1d4:	cf 91       	pop	r28
     1d6:	96 cf       	rjmp	.-212    	; 0x104 <USART_Transmit_Byte>

000001d8 <mmcWriteCached>:
     1d8:	cf 93       	push	r28
     1da:	83 99       	sbic	0x10, 3	; 16
     1dc:	16 c0       	rjmp	.+44     	; 0x20a <mmcWriteCached+0x32>
     1de:	ac 98       	cbi	0x15, 4	; 21
     1e0:	88 23       	and	r24, r24
     1e2:	79 f0       	breq	.+30     	; 0x202 <mmcWriteCached+0x2a>
     1e4:	c0 e1       	ldi	r28, 0x10	; 16
     1e6:	60 91 c2 02 	lds	r22, 0x02C2
     1ea:	70 91 c3 02 	lds	r23, 0x02C3
     1ee:	80 91 c4 02 	lds	r24, 0x02C4
     1f2:	90 91 c5 02 	lds	r25, 0x02C5
     1f6:	83 d2       	rcall	.+1286   	; 0x6fe <mmcWrite>
     1f8:	88 23       	and	r24, r24
     1fa:	51 f0       	breq	.+20     	; 0x210 <mmcWriteCached+0x38>
     1fc:	c1 50       	subi	r28, 0x01	; 1
     1fe:	99 f7       	brne	.-26     	; 0x1e6 <mmcWriteCached+0xe>
     200:	06 c0       	rjmp	.+12     	; 0x20e <mmcWriteCached+0x36>
     202:	81 e0       	ldi	r24, 0x01	; 1
     204:	80 93 c6 03 	sts	0x03C6, r24
     208:	06 c0       	rjmp	.+12     	; 0x216 <mmcWriteCached+0x3e>
     20a:	8f ef       	ldi	r24, 0xFF	; 255
     20c:	05 c0       	rjmp	.+10     	; 0x218 <mmcWriteCached+0x40>
     20e:	ff cf       	rjmp	.-2      	; 0x20e <mmcWriteCached+0x36>
     210:	10 92 c6 03 	sts	0x03C6, r1
     214:	ac 9a       	sbi	0x15, 4	; 21
     216:	80 e0       	ldi	r24, 0x00	; 0
     218:	cf 91       	pop	r28
     21a:	08 95       	ret

0000021c <mmcWriteCachedFlush>:
     21c:	80 91 c6 03 	lds	r24, 0x03C6
     220:	88 23       	and	r24, r24
     222:	19 f0       	breq	.+6      	; 0x22a <mmcWriteCachedFlush+0xe>
     224:	81 e0       	ldi	r24, 0x01	; 1
     226:	d8 df       	rcall	.-80     	; 0x1d8 <mmcWriteCached>
     228:	fb cf       	rjmp	.-10     	; 0x220 <mmcWriteCachedFlush+0x4>
     22a:	08 95       	ret

0000022c <mmcReadCached>:
     22c:	cf 92       	push	r12
     22e:	df 92       	push	r13
     230:	ef 92       	push	r14
     232:	ff 92       	push	r15
     234:	cf 93       	push	r28
     236:	6b 01       	movw	r12, r22
     238:	7c 01       	movw	r14, r24
     23a:	80 91 c2 02 	lds	r24, 0x02C2
     23e:	90 91 c3 02 	lds	r25, 0x02C3
     242:	a0 91 c4 02 	lds	r26, 0x02C4
     246:	b0 91 c5 02 	lds	r27, 0x02C5
     24a:	c8 16       	cp	r12, r24
     24c:	d9 06       	cpc	r13, r25
     24e:	ea 06       	cpc	r14, r26
     250:	fb 06       	cpc	r15, r27
     252:	99 f0       	breq	.+38     	; 0x27a <mmcReadCached+0x4e>
     254:	e3 df       	rcall	.-58     	; 0x21c <mmcWriteCachedFlush>
     256:	c0 e0       	ldi	r28, 0x00	; 0
     258:	c7 01       	movw	r24, r14
     25a:	b6 01       	movw	r22, r12
     25c:	2e d2       	rcall	.+1116   	; 0x6ba <mmcRead>
     25e:	c1 50       	subi	r28, 0x01	; 1
     260:	88 23       	and	r24, r24
     262:	19 f0       	breq	.+6      	; 0x26a <mmcReadCached+0x3e>
     264:	c1 11       	cpse	r28, r1
     266:	f8 cf       	rjmp	.-16     	; 0x258 <mmcReadCached+0x2c>
     268:	ff cf       	rjmp	.-2      	; 0x268 <mmcReadCached+0x3c>
     26a:	c0 92 c2 02 	sts	0x02C2, r12
     26e:	d0 92 c3 02 	sts	0x02C3, r13
     272:	e0 92 c4 02 	sts	0x02C4, r14
     276:	f0 92 c5 02 	sts	0x02C5, r15
     27a:	cf 91       	pop	r28
     27c:	ff 90       	pop	r15
     27e:	ef 90       	pop	r14
     280:	df 90       	pop	r13
     282:	cf 90       	pop	r12
     284:	08 95       	ret

00000286 <getClusterN>:
     286:	cf 93       	push	r28
     288:	df 93       	push	r29
     28a:	ec 01       	movw	r28, r24
     28c:	80 91 d3 03 	lds	r24, 0x03D3
     290:	90 91 d4 03 	lds	r25, 0x03D4
     294:	c8 17       	cp	r28, r24
     296:	d9 07       	cpc	r29, r25
     298:	60 f4       	brcc	.+24     	; 0x2b2 <getClusterN+0x2c>
     29a:	80 91 cd 03 	lds	r24, 0x03CD
     29e:	90 91 ce 03 	lds	r25, 0x03CE
     2a2:	90 93 d2 03 	sts	0x03D2, r25
     2a6:	80 93 d1 03 	sts	0x03D1, r24
     2aa:	10 92 d4 03 	sts	0x03D4, r1
     2ae:	10 92 d3 03 	sts	0x03D3, r1
     2b2:	20 91 d3 03 	lds	r18, 0x03D3
     2b6:	30 91 d4 03 	lds	r19, 0x03D4
     2ba:	80 91 d1 03 	lds	r24, 0x03D1
     2be:	90 91 d2 03 	lds	r25, 0x03D2
     2c2:	2c 17       	cp	r18, r28
     2c4:	3d 07       	cpc	r19, r29
     2c6:	81 f0       	breq	.+32     	; 0x2e8 <getClusterN+0x62>
     2c8:	fd d2       	rcall	.+1530   	; 0x8c4 <nextCluster>
     2ca:	90 93 d2 03 	sts	0x03D2, r25
     2ce:	80 93 d1 03 	sts	0x03D1, r24
     2d2:	20 91 d3 03 	lds	r18, 0x03D3
     2d6:	30 91 d4 03 	lds	r19, 0x03D4
     2da:	2f 5f       	subi	r18, 0xFF	; 255
     2dc:	3f 4f       	sbci	r19, 0xFF	; 255
     2de:	30 93 d4 03 	sts	0x03D4, r19
     2e2:	20 93 d3 03 	sts	0x03D3, r18
     2e6:	e5 cf       	rjmp	.-54     	; 0x2b2 <getClusterN+0x2c>
     2e8:	df 91       	pop	r29
     2ea:	cf 91       	pop	r28
     2ec:	08 95       	ret

000002ee <faccess_offset>:
     2ee:	2f 92       	push	r2
     2f0:	3f 92       	push	r3
     2f2:	4f 92       	push	r4
     2f4:	5f 92       	push	r5
     2f6:	6f 92       	push	r6
     2f8:	7f 92       	push	r7
     2fa:	8f 92       	push	r8
     2fc:	9f 92       	push	r9
     2fe:	af 92       	push	r10
     300:	bf 92       	push	r11
     302:	cf 92       	push	r12
     304:	df 92       	push	r13
     306:	ef 92       	push	r14
     308:	ff 92       	push	r15
     30a:	0f 93       	push	r16
     30c:	1f 93       	push	r17
     30e:	cf 93       	push	r28
     310:	df 93       	push	r29
     312:	cd b7       	in	r28, 0x3d	; 61
     314:	de b7       	in	r29, 0x3e	; 62
     316:	2b 97       	sbiw	r28, 0x0b	; 11
     318:	0f b6       	in	r0, 0x3f	; 63
     31a:	f8 94       	cli
     31c:	de bf       	out	0x3e, r29	; 62
     31e:	0f be       	out	0x3f, r0	; 63
     320:	cd bf       	out	0x3d, r28	; 61
     322:	8d 83       	std	Y+5, r24	; 0x05
     324:	2a 01       	movw	r4, r20
     326:	3b 01       	movw	r6, r22
     328:	89 01       	movw	r16, r18
     32a:	a0 91 c1 00 	lds	r26, 0x00C1
     32e:	20 91 bf 00 	lds	r18, 0x00BF
     332:	30 91 c0 00 	lds	r19, 0x00C0
     336:	80 90 d7 03 	lds	r8, 0x03D7
     33a:	90 90 d8 03 	lds	r9, 0x03D8
     33e:	a0 90 d9 03 	lds	r10, 0x03D9
     342:	b0 90 da 03 	lds	r11, 0x03DA
     346:	48 15       	cp	r20, r8
     348:	59 05       	cpc	r21, r9
     34a:	6a 05       	cpc	r22, r10
     34c:	7b 05       	cpc	r23, r11
     34e:	18 f0       	brcs	.+6      	; 0x356 <faccess_offset+0x68>
     350:	00 e0       	ldi	r16, 0x00	; 0
     352:	10 e0       	ldi	r17, 0x00	; 0
     354:	cd c0       	rjmp	.+410    	; 0x4f0 <__stack+0x91>
     356:	a9 01       	movw	r20, r18
     358:	60 e0       	ldi	r22, 0x00	; 0
     35a:	70 e0       	ldi	r23, 0x00	; 0
     35c:	49 83       	std	Y+1, r20	; 0x01
     35e:	5a 83       	std	Y+2, r21	; 0x02
     360:	6b 83       	std	Y+3, r22	; 0x03
     362:	7c 83       	std	Y+4, r23	; 0x04
     364:	b0 e0       	ldi	r27, 0x00	; 0
     366:	1f dd       	rcall	.-1474   	; 0xfffffda6 <__eeprom_end+0xff7efc5d>
     368:	6b 01       	movw	r12, r22
     36a:	7c 01       	movw	r14, r24
     36c:	c5 01       	movw	r24, r10
     36e:	b4 01       	movw	r22, r8
     370:	64 19       	sub	r22, r4
     372:	75 09       	sbc	r23, r5
     374:	86 09       	sbc	r24, r6
     376:	97 09       	sbc	r25, r7
     378:	6e 83       	std	Y+6, r22	; 0x06
     37a:	7f 83       	std	Y+7, r23	; 0x07
     37c:	88 87       	std	Y+8, r24	; 0x08
     37e:	99 87       	std	Y+9, r25	; 0x09
     380:	c3 01       	movw	r24, r6
     382:	b2 01       	movw	r22, r4
     384:	a7 01       	movw	r20, r14
     386:	96 01       	movw	r18, r12
     388:	53 dd       	rcall	.-1370   	; 0xfffffe30 <__eeprom_end+0xff7efce7>
     38a:	49 01       	movw	r8, r18
     38c:	5a 01       	movw	r10, r20
     38e:	c7 01       	movw	r24, r14
     390:	b6 01       	movw	r22, r12
     392:	1f dd       	rcall	.-1474   	; 0xfffffdd2 <__eeprom_end+0xff7efc89>
     394:	46 1a       	sub	r4, r22
     396:	57 0a       	sbc	r5, r23
     398:	68 0a       	sbc	r6, r24
     39a:	79 0a       	sbc	r7, r25
     39c:	c3 01       	movw	r24, r6
     39e:	b2 01       	movw	r22, r4
     3a0:	29 81       	ldd	r18, Y+1	; 0x01
     3a2:	3a 81       	ldd	r19, Y+2	; 0x02
     3a4:	4b 81       	ldd	r20, Y+3	; 0x03
     3a6:	5c 81       	ldd	r21, Y+4	; 0x04
     3a8:	43 dd       	rcall	.-1402   	; 0xfffffe30 <__eeprom_end+0xff7efce7>
     3aa:	69 01       	movw	r12, r18
     3ac:	7a 01       	movw	r14, r20
     3ae:	69 81       	ldd	r22, Y+1	; 0x01
     3b0:	7a 81       	ldd	r23, Y+2	; 0x02
     3b2:	8b 81       	ldd	r24, Y+3	; 0x03
     3b4:	9c 81       	ldd	r25, Y+4	; 0x04
     3b6:	0d dd       	rcall	.-1510   	; 0xfffffdd2 <__eeprom_end+0xff7efc89>
     3b8:	46 1a       	sub	r4, r22
     3ba:	57 0a       	sbc	r5, r23
     3bc:	68 0a       	sbc	r6, r24
     3be:	79 0a       	sbc	r7, r25
     3c0:	c4 01       	movw	r24, r8
     3c2:	61 df       	rcall	.-318    	; 0x286 <getClusterN>
     3c4:	80 91 d1 03 	lds	r24, 0x03D1
     3c8:	90 91 d2 03 	lds	r25, 0x03D2
     3cc:	c2 d1       	rcall	.+900    	; 0x752 <fatClustToSect>
     3ce:	6c 0d       	add	r22, r12
     3d0:	7d 1d       	adc	r23, r13
     3d2:	8e 1d       	adc	r24, r14
     3d4:	9f 1d       	adc	r25, r15
     3d6:	2a df       	rcall	.-428    	; 0x22c <mmcReadCached>
     3d8:	46 ec       	ldi	r20, 0xC6	; 198
     3da:	52 e0       	ldi	r21, 0x02	; 2
     3dc:	5b 87       	std	Y+11, r21	; 0x0b
     3de:	4a 87       	std	Y+10, r20	; 0x0a
     3e0:	b8 01       	movw	r22, r16
     3e2:	6a 53       	subi	r22, 0x3A	; 58
     3e4:	7d 4f       	sbci	r23, 0xFD	; 253
     3e6:	1b 01       	movw	r2, r22
     3e8:	8e 81       	ldd	r24, Y+6	; 0x06
     3ea:	9f 81       	ldd	r25, Y+7	; 0x07
     3ec:	a8 85       	ldd	r26, Y+8	; 0x08
     3ee:	b9 85       	ldd	r27, Y+9	; 0x09
     3f0:	89 83       	std	Y+1, r24	; 0x01
     3f2:	9a 83       	std	Y+2, r25	; 0x02
     3f4:	ab 83       	std	Y+3, r26	; 0x03
     3f6:	bc 83       	std	Y+4, r27	; 0x04
     3f8:	0e 81       	ldd	r16, Y+6	; 0x06
     3fa:	1f 81       	ldd	r17, Y+7	; 0x07
     3fc:	69 81       	ldd	r22, Y+1	; 0x01
     3fe:	7a 81       	ldd	r23, Y+2	; 0x02
     400:	06 1b       	sub	r16, r22
     402:	17 0b       	sbc	r17, r23
     404:	4a 85       	ldd	r20, Y+10	; 0x0a
     406:	5b 85       	ldd	r21, Y+11	; 0x0b
     408:	42 15       	cp	r20, r2
     40a:	53 05       	cpc	r21, r3
     40c:	09 f4       	brne	.+2      	; 0x410 <faccess_offset+0x122>
     40e:	42 c0       	rjmp	.+132    	; 0x494 <__stack+0x35>
     410:	80 91 bf 00 	lds	r24, 0x00BF
     414:	90 91 c0 00 	lds	r25, 0x00C0
     418:	a0 e0       	ldi	r26, 0x00	; 0
     41a:	b0 e0       	ldi	r27, 0x00	; 0
     41c:	48 16       	cp	r4, r24
     41e:	59 06       	cpc	r5, r25
     420:	6a 06       	cpc	r6, r26
     422:	7b 06       	cpc	r7, r27
     424:	78 f1       	brcs	.+94     	; 0x484 <__stack+0x25>
     426:	9d 81       	ldd	r25, Y+5	; 0x05
     428:	91 30       	cpi	r25, 0x01	; 1
     42a:	d1 f0       	breq	.+52     	; 0x460 <__stack+0x1>
     42c:	af ef       	ldi	r26, 0xFF	; 255
     42e:	ca 1a       	sub	r12, r26
     430:	da 0a       	sbc	r13, r26
     432:	ea 0a       	sbc	r14, r26
     434:	fa 0a       	sbc	r15, r26
     436:	80 91 c1 00 	lds	r24, 0x00C1
     43a:	90 e0       	ldi	r25, 0x00	; 0
     43c:	a0 e0       	ldi	r26, 0x00	; 0
     43e:	b0 e0       	ldi	r27, 0x00	; 0
     440:	c8 16       	cp	r12, r24
     442:	d9 06       	cpc	r13, r25
     444:	ea 06       	cpc	r14, r26
     446:	fb 06       	cpc	r15, r27
     448:	80 f0       	brcs	.+32     	; 0x46a <__stack+0xb>
     44a:	bf ef       	ldi	r27, 0xFF	; 255
     44c:	8b 1a       	sub	r8, r27
     44e:	9b 0a       	sbc	r9, r27
     450:	ab 0a       	sbc	r10, r27
     452:	bb 0a       	sbc	r11, r27
     454:	c4 01       	movw	r24, r8
     456:	17 df       	rcall	.-466    	; 0x286 <getClusterN>
     458:	c1 2c       	mov	r12, r1
     45a:	d1 2c       	mov	r13, r1
     45c:	76 01       	movw	r14, r12
     45e:	05 c0       	rjmp	.+10     	; 0x46a <__stack+0xb>
     460:	80 e0       	ldi	r24, 0x00	; 0
     462:	ba de       	rcall	.-652    	; 0x1d8 <mmcWriteCached>
     464:	88 23       	and	r24, r24
     466:	11 f3       	breq	.-60     	; 0x42c <faccess_offset+0x13e>
     468:	73 cf       	rjmp	.-282    	; 0x350 <faccess_offset+0x62>
     46a:	80 91 d1 03 	lds	r24, 0x03D1
     46e:	90 91 d2 03 	lds	r25, 0x03D2
     472:	6f d1       	rcall	.+734    	; 0x752 <fatClustToSect>
     474:	6c 0d       	add	r22, r12
     476:	7d 1d       	adc	r23, r13
     478:	8e 1d       	adc	r24, r14
     47a:	9f 1d       	adc	r25, r15
     47c:	d7 de       	rcall	.-594    	; 0x22c <mmcReadCached>
     47e:	41 2c       	mov	r4, r1
     480:	51 2c       	mov	r5, r1
     482:	32 01       	movw	r6, r4
     484:	49 81       	ldd	r20, Y+1	; 0x01
     486:	5a 81       	ldd	r21, Y+2	; 0x02
     488:	6b 81       	ldd	r22, Y+3	; 0x03
     48a:	7c 81       	ldd	r23, Y+4	; 0x04
     48c:	45 2b       	or	r20, r21
     48e:	46 2b       	or	r20, r22
     490:	47 2b       	or	r20, r23
     492:	21 f4       	brne	.+8      	; 0x49c <__stack+0x3d>
     494:	5d 81       	ldd	r21, Y+5	; 0x05
     496:	51 30       	cpi	r21, 0x01	; 1
     498:	59 f5       	brne	.+86     	; 0x4f0 <__stack+0x91>
     49a:	26 c0       	rjmp	.+76     	; 0x4e8 <__stack+0x89>
     49c:	f2 01       	movw	r30, r4
     49e:	ee 53       	subi	r30, 0x3E	; 62
     4a0:	ff 4f       	sbci	r31, 0xFF	; 255
     4a2:	6d 81       	ldd	r22, Y+5	; 0x05
     4a4:	61 30       	cpi	r22, 0x01	; 1
     4a6:	21 f4       	brne	.+8      	; 0x4b0 <__stack+0x51>
     4a8:	aa 85       	ldd	r26, Y+10	; 0x0a
     4aa:	bb 85       	ldd	r27, Y+11	; 0x0b
     4ac:	8c 91       	ld	r24, X
     4ae:	03 c0       	rjmp	.+6      	; 0x4b6 <__stack+0x57>
     4b0:	80 81       	ld	r24, Z
     4b2:	ea 85       	ldd	r30, Y+10	; 0x0a
     4b4:	fb 85       	ldd	r31, Y+11	; 0x0b
     4b6:	80 83       	st	Z, r24
     4b8:	49 81       	ldd	r20, Y+1	; 0x01
     4ba:	5a 81       	ldd	r21, Y+2	; 0x02
     4bc:	6b 81       	ldd	r22, Y+3	; 0x03
     4be:	7c 81       	ldd	r23, Y+4	; 0x04
     4c0:	41 50       	subi	r20, 0x01	; 1
     4c2:	51 09       	sbc	r21, r1
     4c4:	61 09       	sbc	r22, r1
     4c6:	71 09       	sbc	r23, r1
     4c8:	49 83       	std	Y+1, r20	; 0x01
     4ca:	5a 83       	std	Y+2, r21	; 0x02
     4cc:	6b 83       	std	Y+3, r22	; 0x03
     4ce:	7c 83       	std	Y+4, r23	; 0x04
     4d0:	5f ef       	ldi	r21, 0xFF	; 255
     4d2:	45 1a       	sub	r4, r21
     4d4:	55 0a       	sbc	r5, r21
     4d6:	65 0a       	sbc	r6, r21
     4d8:	75 0a       	sbc	r7, r21
     4da:	4a 85       	ldd	r20, Y+10	; 0x0a
     4dc:	5b 85       	ldd	r21, Y+11	; 0x0b
     4de:	4f 5f       	subi	r20, 0xFF	; 255
     4e0:	5f 4f       	sbci	r21, 0xFF	; 255
     4e2:	5b 87       	std	Y+11, r21	; 0x0b
     4e4:	4a 87       	std	Y+10, r20	; 0x0a
     4e6:	88 cf       	rjmp	.-240    	; 0x3f8 <faccess_offset+0x10a>
     4e8:	80 e0       	ldi	r24, 0x00	; 0
     4ea:	76 de       	rcall	.-788    	; 0x1d8 <mmcWriteCached>
     4ec:	81 11       	cpse	r24, r1
     4ee:	30 cf       	rjmp	.-416    	; 0x350 <faccess_offset+0x62>
     4f0:	c8 01       	movw	r24, r16
     4f2:	2b 96       	adiw	r28, 0x0b	; 11
     4f4:	0f b6       	in	r0, 0x3f	; 63
     4f6:	f8 94       	cli
     4f8:	de bf       	out	0x3e, r29	; 62
     4fa:	0f be       	out	0x3f, r0	; 63
     4fc:	cd bf       	out	0x3d, r28	; 61
     4fe:	df 91       	pop	r29
     500:	cf 91       	pop	r28
     502:	1f 91       	pop	r17
     504:	0f 91       	pop	r16
     506:	ff 90       	pop	r15
     508:	ef 90       	pop	r14
     50a:	df 90       	pop	r13
     50c:	cf 90       	pop	r12
     50e:	bf 90       	pop	r11
     510:	af 90       	pop	r10
     512:	9f 90       	pop	r9
     514:	8f 90       	pop	r8
     516:	7f 90       	pop	r7
     518:	6f 90       	pop	r6
     51a:	5f 90       	pop	r5
     51c:	4f 90       	pop	r4
     51e:	3f 90       	pop	r3
     520:	2f 90       	pop	r2
     522:	08 95       	ret

00000524 <set_display>:
     524:	43 b3       	in	r20, 0x13	; 19
     526:	40 7f       	andi	r20, 0xF0	; 240
     528:	88 23       	and	r24, r24
     52a:	71 f0       	breq	.+28     	; 0x548 <set_display+0x24>
     52c:	24 e0       	ldi	r18, 0x04	; 4
     52e:	30 e0       	ldi	r19, 0x00	; 0
     530:	28 1b       	sub	r18, r24
     532:	31 09       	sbc	r19, r1
     534:	81 e0       	ldi	r24, 0x01	; 1
     536:	90 e0       	ldi	r25, 0x00	; 0
     538:	02 2e       	mov	r0, r18
     53a:	01 c0       	rjmp	.+2      	; 0x53e <set_display+0x1a>
     53c:	88 0f       	add	r24, r24
     53e:	0a 94       	dec	r0
     540:	ea f7       	brpl	.-6      	; 0x53c <set_display+0x18>
     542:	9f e0       	ldi	r25, 0x0F	; 15
     544:	98 27       	eor	r25, r24
     546:	49 2b       	or	r20, r25
     548:	45 bb       	out	0x15, r20	; 21
     54a:	08 95       	ret

0000054c <GetvDiskPtr>:
     54c:	2f e0       	ldi	r18, 0x0F	; 15
     54e:	82 9f       	mul	r24, r18
     550:	c0 01       	movw	r24, r0
     552:	11 24       	eor	r1, r1
     554:	80 5a       	subi	r24, 0xA0	; 160
     556:	9f 4f       	sbci	r25, 0xFF	; 255
     558:	08 95       	ret

0000055a <Clear_atari_sector_buffer>:
     55a:	e6 ec       	ldi	r30, 0xC6	; 198
     55c:	f2 e0       	ldi	r31, 0x02	; 2
     55e:	8a 53       	subi	r24, 0x3A	; 58
     560:	9d 4f       	sbci	r25, 0xFD	; 253
     562:	11 92       	st	Z+, r1
     564:	e8 17       	cp	r30, r24
     566:	f9 07       	cpc	r31, r25
     568:	e1 f7       	brne	.-8      	; 0x562 <Clear_atari_sector_buffer+0x8>
     56a:	08 95       	ret

0000056c <Clear_atari_sector_buffer_256>:
     56c:	80 e0       	ldi	r24, 0x00	; 0
     56e:	91 e0       	ldi	r25, 0x01	; 1
     570:	f4 cf       	rjmp	.-24     	; 0x55a <Clear_atari_sector_buffer>

00000572 <PutDecimalNumberToAtariSectorBuffer>:
     572:	e6 2f       	mov	r30, r22
     574:	f0 e0       	ldi	r31, 0x00	; 0
     576:	ea 53       	subi	r30, 0x3A	; 58
     578:	fd 4f       	sbci	r31, 0xFD	; 253
     57a:	6a e0       	ldi	r22, 0x0A	; 10
     57c:	39 dc       	rcall	.-1934   	; 0xfffffdf0 <__eeprom_end+0xff7efca7>
     57e:	80 63       	ori	r24, 0x30	; 48
     580:	80 83       	st	Z, r24
     582:	90 63       	ori	r25, 0x30	; 48
     584:	91 83       	std	Z+1, r25	; 0x01
     586:	08 95       	ret

00000588 <spiInit>:
     588:	c5 9a       	sbi	0x18, 5	; 24
     58a:	bd 9a       	sbi	0x17, 5	; 23
     58c:	bc 98       	cbi	0x17, 4	; 23
     58e:	bb 9a       	sbi	0x17, 3	; 23
     590:	ba 9a       	sbi	0x17, 2	; 23
     592:	6c 9a       	sbi	0x0d, 4	; 13
     594:	70 98       	cbi	0x0e, 0	; 14
     596:	68 9a       	sbi	0x0d, 0	; 13
     598:	69 9a       	sbi	0x0d, 1	; 13
     59a:	6b 98       	cbi	0x0d, 3	; 13
     59c:	6d 98       	cbi	0x0d, 5	; 13
     59e:	6e 9a       	sbi	0x0d, 6	; 13
     5a0:	8e b1       	in	r24, 0x0e	; 14
     5a2:	08 95       	ret

000005a4 <spiSendByte>:
     5a4:	77 9b       	sbis	0x0e, 7	; 14
     5a6:	fe cf       	rjmp	.-4      	; 0x5a4 <spiSendByte>
     5a8:	8f b9       	out	0x0f, r24	; 15
     5aa:	08 95       	ret

000005ac <spiTransferByte>:
     5ac:	8f b9       	out	0x0f, r24	; 15
     5ae:	77 9b       	sbis	0x0e, 7	; 14
     5b0:	fe cf       	rjmp	.-4      	; 0x5ae <spiTransferByte+0x2>
     5b2:	8f b1       	in	r24, 0x0f	; 15
     5b4:	08 95       	ret

000005b6 <spiTransferFF>:
     5b6:	8f ef       	ldi	r24, 0xFF	; 255
     5b8:	f9 cf       	rjmp	.-14     	; 0x5ac <spiTransferByte>

000005ba <mmcInit>:
     5ba:	e6 df       	rcall	.-52     	; 0x588 <spiInit>
     5bc:	ba 9a       	sbi	0x17, 2	; 23
     5be:	c2 9a       	sbi	0x18, 2	; 24
     5c0:	08 95       	ret

000005c2 <mmcCommand>:
     5c2:	1f 93       	push	r17
     5c4:	cf 93       	push	r28
     5c6:	df 93       	push	r29
     5c8:	00 d0       	rcall	.+0      	; 0x5ca <mmcCommand+0x8>
     5ca:	00 d0       	rcall	.+0      	; 0x5cc <mmcCommand+0xa>
     5cc:	cd b7       	in	r28, 0x3d	; 61
     5ce:	de b7       	in	r29, 0x3e	; 62
     5d0:	18 2f       	mov	r17, r24
     5d2:	4c 83       	std	Y+4, r20	; 0x04
     5d4:	5b 83       	std	Y+3, r21	; 0x03
     5d6:	6a 83       	std	Y+2, r22	; 0x02
     5d8:	79 83       	std	Y+1, r23	; 0x01
     5da:	ed df       	rcall	.-38     	; 0x5b6 <spiTransferFF>
     5dc:	ec df       	rcall	.-40     	; 0x5b6 <spiTransferFF>
     5de:	eb df       	rcall	.-42     	; 0x5b6 <spiTransferFF>
     5e0:	ea df       	rcall	.-44     	; 0x5b6 <spiTransferFF>
     5e2:	81 2f       	mov	r24, r17
     5e4:	80 64       	ori	r24, 0x40	; 64
     5e6:	e2 df       	rcall	.-60     	; 0x5ac <spiTransferByte>
     5e8:	79 81       	ldd	r23, Y+1	; 0x01
     5ea:	87 2f       	mov	r24, r23
     5ec:	df df       	rcall	.-66     	; 0x5ac <spiTransferByte>
     5ee:	6a 81       	ldd	r22, Y+2	; 0x02
     5f0:	86 2f       	mov	r24, r22
     5f2:	dc df       	rcall	.-72     	; 0x5ac <spiTransferByte>
     5f4:	5b 81       	ldd	r21, Y+3	; 0x03
     5f6:	85 2f       	mov	r24, r21
     5f8:	d9 df       	rcall	.-78     	; 0x5ac <spiTransferByte>
     5fa:	4c 81       	ldd	r20, Y+4	; 0x04
     5fc:	84 2f       	mov	r24, r20
     5fe:	d6 df       	rcall	.-84     	; 0x5ac <spiTransferByte>
     600:	85 e9       	ldi	r24, 0x95	; 149
     602:	d4 df       	rcall	.-88     	; 0x5ac <spiTransferByte>
     604:	1f ef       	ldi	r17, 0xFF	; 255
     606:	d7 df       	rcall	.-82     	; 0x5b6 <spiTransferFF>
     608:	11 50       	subi	r17, 0x01	; 1
     60a:	11 f0       	breq	.+4      	; 0x610 <mmcCommand+0x4e>
     60c:	8f 3f       	cpi	r24, 0xFF	; 255
     60e:	d9 f3       	breq	.-10     	; 0x606 <mmcCommand+0x44>
     610:	0f 90       	pop	r0
     612:	0f 90       	pop	r0
     614:	0f 90       	pop	r0
     616:	0f 90       	pop	r0
     618:	df 91       	pop	r29
     61a:	cf 91       	pop	r28
     61c:	1f 91       	pop	r17
     61e:	08 95       	ret

00000620 <mmcSendCommand>:
     620:	c2 98       	cbi	0x18, 2	; 24
     622:	cf df       	rcall	.-98     	; 0x5c2 <mmcCommand>
     624:	c2 9a       	sbi	0x18, 2	; 24
     626:	08 95       	ret

00000628 <mmcReset>:
     628:	1f 93       	push	r17
     62a:	cf 93       	push	r28
     62c:	df 93       	push	r29
     62e:	8f ef       	ldi	r24, 0xFF	; 255
     630:	9f ef       	ldi	r25, 0xFF	; 255
     632:	dc 01       	movw	r26, r24
     634:	80 93 c2 02 	sts	0x02C2, r24
     638:	90 93 c3 02 	sts	0x02C3, r25
     63c:	a0 93 c4 02 	sts	0x02C4, r26
     640:	b0 93 c5 02 	sts	0x02C5, r27
     644:	10 92 c6 03 	sts	0x03C6, r1
     648:	1f ef       	ldi	r17, 0xFF	; 255
     64a:	b5 df       	rcall	.-150    	; 0x5b6 <spiTransferFF>
     64c:	11 50       	subi	r17, 0x01	; 1
     64e:	e9 f7       	brne	.-6      	; 0x64a <mmcReset+0x22>
     650:	40 e0       	ldi	r20, 0x00	; 0
     652:	50 e0       	ldi	r21, 0x00	; 0
     654:	ba 01       	movw	r22, r20
     656:	80 e0       	ldi	r24, 0x00	; 0
     658:	e3 df       	rcall	.-58     	; 0x620 <mmcSendCommand>
     65a:	81 30       	cpi	r24, 0x01	; 1
     65c:	11 f0       	breq	.+4      	; 0x662 <mmcReset+0x3a>
     65e:	1f ef       	ldi	r17, 0xFF	; 255
     660:	27 c0       	rjmp	.+78     	; 0x6b0 <mmcReset+0x88>
     662:	cf ef       	ldi	r28, 0xFF	; 255
     664:	df ef       	ldi	r29, 0xFF	; 255
     666:	40 e0       	ldi	r20, 0x00	; 0
     668:	50 e0       	ldi	r21, 0x00	; 0
     66a:	ba 01       	movw	r22, r20
     66c:	87 e3       	ldi	r24, 0x37	; 55
     66e:	d8 df       	rcall	.-80     	; 0x620 <mmcSendCommand>
     670:	81 30       	cpi	r24, 0x01	; 1
     672:	99 f0       	breq	.+38     	; 0x69a <mmcReset+0x72>
     674:	40 e0       	ldi	r20, 0x00	; 0
     676:	50 e0       	ldi	r21, 0x00	; 0
     678:	ba 01       	movw	r22, r20
     67a:	81 e0       	ldi	r24, 0x01	; 1
     67c:	d1 df       	rcall	.-94     	; 0x620 <mmcSendCommand>
     67e:	81 11       	cpse	r24, r1
     680:	ee cf       	rjmp	.-36     	; 0x65e <mmcReset+0x36>
     682:	40 e0       	ldi	r20, 0x00	; 0
     684:	50 e0       	ldi	r21, 0x00	; 0
     686:	ba 01       	movw	r22, r20
     688:	8b e3       	ldi	r24, 0x3B	; 59
     68a:	ca df       	rcall	.-108    	; 0x620 <mmcSendCommand>
     68c:	40 e0       	ldi	r20, 0x00	; 0
     68e:	52 e0       	ldi	r21, 0x02	; 2
     690:	60 e0       	ldi	r22, 0x00	; 0
     692:	70 e0       	ldi	r23, 0x00	; 0
     694:	80 e1       	ldi	r24, 0x10	; 16
     696:	c4 df       	rcall	.-120    	; 0x620 <mmcSendCommand>
     698:	0b c0       	rjmp	.+22     	; 0x6b0 <mmcReset+0x88>
     69a:	40 e0       	ldi	r20, 0x00	; 0
     69c:	50 e0       	ldi	r21, 0x00	; 0
     69e:	ba 01       	movw	r22, r20
     6a0:	89 e2       	ldi	r24, 0x29	; 41
     6a2:	be df       	rcall	.-132    	; 0x620 <mmcSendCommand>
     6a4:	88 23       	and	r24, r24
     6a6:	31 f3       	breq	.-52     	; 0x674 <mmcReset+0x4c>
     6a8:	21 97       	sbiw	r28, 0x01	; 1
     6aa:	20 97       	sbiw	r28, 0x00	; 0
     6ac:	e1 f6       	brne	.-72     	; 0x666 <mmcReset+0x3e>
     6ae:	e2 cf       	rjmp	.-60     	; 0x674 <mmcReset+0x4c>
     6b0:	81 2f       	mov	r24, r17
     6b2:	df 91       	pop	r29
     6b4:	cf 91       	pop	r28
     6b6:	1f 91       	pop	r17
     6b8:	08 95       	ret

000006ba <mmcRead>:
     6ba:	cf 93       	push	r28
     6bc:	df 93       	push	r29
     6be:	ab 01       	movw	r20, r22
     6c0:	bc 01       	movw	r22, r24
     6c2:	c2 98       	cbi	0x18, 2	; 24
     6c4:	89 e0       	ldi	r24, 0x09	; 9
     6c6:	44 0f       	add	r20, r20
     6c8:	55 1f       	adc	r21, r21
     6ca:	66 1f       	adc	r22, r22
     6cc:	77 1f       	adc	r23, r23
     6ce:	8a 95       	dec	r24
     6d0:	d1 f7       	brne	.-12     	; 0x6c6 <mmcRead+0xc>
     6d2:	81 e1       	ldi	r24, 0x11	; 17
     6d4:	76 df       	rcall	.-276    	; 0x5c2 <mmcCommand>
     6d6:	81 11       	cpse	r24, r1
     6d8:	0f c0       	rjmp	.+30     	; 0x6f8 <mmcRead+0x3e>
     6da:	6d df       	rcall	.-294    	; 0x5b6 <spiTransferFF>
     6dc:	8e 3f       	cpi	r24, 0xFE	; 254
     6de:	e9 f7       	brne	.-6      	; 0x6da <mmcRead+0x20>
     6e0:	c2 ec       	ldi	r28, 0xC2	; 194
     6e2:	d0 e0       	ldi	r29, 0x00	; 0
     6e4:	68 df       	rcall	.-304    	; 0x5b6 <spiTransferFF>
     6e6:	89 93       	st	Y+, r24
     6e8:	82 e0       	ldi	r24, 0x02	; 2
     6ea:	c2 3c       	cpi	r28, 0xC2	; 194
     6ec:	d8 07       	cpc	r29, r24
     6ee:	d1 f7       	brne	.-12     	; 0x6e4 <mmcRead+0x2a>
     6f0:	62 df       	rcall	.-316    	; 0x5b6 <spiTransferFF>
     6f2:	61 df       	rcall	.-318    	; 0x5b6 <spiTransferFF>
     6f4:	c2 9a       	sbi	0x18, 2	; 24
     6f6:	80 e0       	ldi	r24, 0x00	; 0
     6f8:	df 91       	pop	r29
     6fa:	cf 91       	pop	r28
     6fc:	08 95       	ret

000006fe <mmcWrite>:
     6fe:	cf 93       	push	r28
     700:	df 93       	push	r29
     702:	ab 01       	movw	r20, r22
     704:	bc 01       	movw	r22, r24
     706:	c2 98       	cbi	0x18, 2	; 24
     708:	99 e0       	ldi	r25, 0x09	; 9
     70a:	44 0f       	add	r20, r20
     70c:	55 1f       	adc	r21, r21
     70e:	66 1f       	adc	r22, r22
     710:	77 1f       	adc	r23, r23
     712:	9a 95       	dec	r25
     714:	d1 f7       	brne	.-12     	; 0x70a <mmcWrite+0xc>
     716:	88 e1       	ldi	r24, 0x18	; 24
     718:	54 df       	rcall	.-344    	; 0x5c2 <mmcCommand>
     71a:	81 11       	cpse	r24, r1
     71c:	17 c0       	rjmp	.+46     	; 0x74c <mmcWrite+0x4e>
     71e:	4b df       	rcall	.-362    	; 0x5b6 <spiTransferFF>
     720:	8e ef       	ldi	r24, 0xFE	; 254
     722:	44 df       	rcall	.-376    	; 0x5ac <spiTransferByte>
     724:	c2 ec       	ldi	r28, 0xC2	; 194
     726:	d0 e0       	ldi	r29, 0x00	; 0
     728:	89 91       	ld	r24, Y+
     72a:	40 df       	rcall	.-384    	; 0x5ac <spiTransferByte>
     72c:	82 e0       	ldi	r24, 0x02	; 2
     72e:	c2 3c       	cpi	r28, 0xC2	; 194
     730:	d8 07       	cpc	r29, r24
     732:	d1 f7       	brne	.-12     	; 0x728 <mmcWrite+0x2a>
     734:	40 df       	rcall	.-384    	; 0x5b6 <spiTransferFF>
     736:	3f df       	rcall	.-386    	; 0x5b6 <spiTransferFF>
     738:	3e df       	rcall	.-388    	; 0x5b6 <spiTransferFF>
     73a:	98 2f       	mov	r25, r24
     73c:	9f 71       	andi	r25, 0x1F	; 31
     73e:	95 30       	cpi	r25, 0x05	; 5
     740:	29 f4       	brne	.+10     	; 0x74c <mmcWrite+0x4e>
     742:	39 df       	rcall	.-398    	; 0x5b6 <spiTransferFF>
     744:	88 23       	and	r24, r24
     746:	e9 f3       	breq	.-6      	; 0x742 <mmcWrite+0x44>
     748:	c2 9a       	sbi	0x18, 2	; 24
     74a:	80 e0       	ldi	r24, 0x00	; 0
     74c:	df 91       	pop	r29
     74e:	cf 91       	pop	r28
     750:	08 95       	ret

00000752 <fatClustToSect>:
     752:	cf 92       	push	r12
     754:	df 92       	push	r13
     756:	ef 92       	push	r14
     758:	ff 92       	push	r15
     75a:	c0 90 b9 00 	lds	r12, 0x00B9
     75e:	d0 90 ba 00 	lds	r13, 0x00BA
     762:	e0 90 bb 00 	lds	r14, 0x00BB
     766:	f0 90 bc 00 	lds	r15, 0x00BC
     76a:	00 97       	sbiw	r24, 0x00	; 0
     76c:	69 f4       	brne	.+26     	; 0x788 <fatClustToSect+0x36>
     76e:	80 91 bd 00 	lds	r24, 0x00BD
     772:	90 91 be 00 	lds	r25, 0x00BE
     776:	a7 01       	movw	r20, r14
     778:	96 01       	movw	r18, r12
     77a:	28 1b       	sub	r18, r24
     77c:	39 0b       	sbc	r19, r25
     77e:	41 09       	sbc	r20, r1
     780:	51 09       	sbc	r21, r1
     782:	ca 01       	movw	r24, r20
     784:	b9 01       	movw	r22, r18
     786:	0b c0       	rjmp	.+22     	; 0x79e <fatClustToSect+0x4c>
     788:	9c 01       	movw	r18, r24
     78a:	22 50       	subi	r18, 0x02	; 2
     78c:	31 09       	sbc	r19, r1
     78e:	a0 91 c1 00 	lds	r26, 0x00C1
     792:	b0 e0       	ldi	r27, 0x00	; 0
     794:	08 db       	rcall	.-2544   	; 0xfffffda6 <__eeprom_end+0xff7efc5d>
     796:	6c 0d       	add	r22, r12
     798:	7d 1d       	adc	r23, r13
     79a:	8e 1d       	adc	r24, r14
     79c:	9f 1d       	adc	r25, r15
     79e:	ff 90       	pop	r15
     7a0:	ef 90       	pop	r14
     7a2:	df 90       	pop	r13
     7a4:	cf 90       	pop	r12
     7a6:	08 95       	ret

000007a8 <fatInit>:
     7a8:	cf 92       	push	r12
     7aa:	df 92       	push	r13
     7ac:	ef 92       	push	r14
     7ae:	ff 92       	push	r15
     7b0:	cf 93       	push	r28
     7b2:	60 e0       	ldi	r22, 0x00	; 0
     7b4:	70 e0       	ldi	r23, 0x00	; 0
     7b6:	cb 01       	movw	r24, r22
     7b8:	39 dd       	rcall	.-1422   	; 0x22c <mmcReadCached>
     7ba:	c0 91 84 02 	lds	r28, 0x0284
     7be:	c0 90 88 02 	lds	r12, 0x0288
     7c2:	d0 90 89 02 	lds	r13, 0x0289
     7c6:	e0 90 8a 02 	lds	r14, 0x028A
     7ca:	f0 90 8b 02 	lds	r15, 0x028B
     7ce:	80 91 f8 00 	lds	r24, 0x00F8
     7d2:	86 34       	cpi	r24, 0x46	; 70
     7d4:	a1 f4       	brne	.+40     	; 0x7fe <fatInit+0x56>
     7d6:	80 91 f9 00 	lds	r24, 0x00F9
     7da:	81 34       	cpi	r24, 0x41	; 65
     7dc:	81 f4       	brne	.+32     	; 0x7fe <fatInit+0x56>
     7de:	80 91 fa 00 	lds	r24, 0x00FA
     7e2:	84 35       	cpi	r24, 0x54	; 84
     7e4:	61 f4       	brne	.+24     	; 0x7fe <fatInit+0x56>
     7e6:	80 91 fb 00 	lds	r24, 0x00FB
     7ea:	81 33       	cpi	r24, 0x31	; 49
     7ec:	41 f4       	brne	.+16     	; 0x7fe <fatInit+0x56>
     7ee:	80 91 fc 00 	lds	r24, 0x00FC
     7f2:	86 33       	cpi	r24, 0x36	; 54
     7f4:	21 f4       	brne	.+8      	; 0x7fe <fatInit+0x56>
     7f6:	c1 2c       	mov	r12, r1
     7f8:	d1 2c       	mov	r13, r1
     7fa:	76 01       	movw	r14, r12
     7fc:	ce e0       	ldi	r28, 0x0E	; 14
     7fe:	c7 01       	movw	r24, r14
     800:	b6 01       	movw	r22, r12
     802:	14 dd       	rcall	.-1496   	; 0x22c <mmcReadCached>
     804:	80 91 d3 00 	lds	r24, 0x00D3
     808:	90 91 d4 00 	lds	r25, 0x00D4
     80c:	24 e0       	ldi	r18, 0x04	; 4
     80e:	96 95       	lsr	r25
     810:	87 95       	ror	r24
     812:	2a 95       	dec	r18
     814:	e1 f7       	brne	.-8      	; 0x80e <fatInit+0x66>
     816:	90 93 be 00 	sts	0x00BE, r25
     81a:	80 93 bd 00 	sts	0x00BD, r24
     81e:	20 91 d0 00 	lds	r18, 0x00D0
     822:	30 91 d1 00 	lds	r19, 0x00D1
     826:	82 0f       	add	r24, r18
     828:	93 1f       	adc	r25, r19
     82a:	e0 91 d2 00 	lds	r30, 0x00D2
     82e:	60 91 d8 00 	lds	r22, 0x00D8
     832:	70 91 d9 00 	lds	r23, 0x00D9
     836:	e6 9f       	mul	r30, r22
     838:	a0 01       	movw	r20, r0
     83a:	e7 9f       	mul	r30, r23
     83c:	50 0d       	add	r21, r0
     83e:	11 24       	eor	r1, r1
     840:	84 0f       	add	r24, r20
     842:	95 1f       	adc	r25, r21
     844:	b7 01       	movw	r22, r14
     846:	a6 01       	movw	r20, r12
     848:	48 0f       	add	r20, r24
     84a:	59 1f       	adc	r21, r25
     84c:	61 1d       	adc	r22, r1
     84e:	71 1d       	adc	r23, r1
     850:	40 93 b9 00 	sts	0x00B9, r20
     854:	50 93 ba 00 	sts	0x00BA, r21
     858:	60 93 bb 00 	sts	0x00BB, r22
     85c:	70 93 bc 00 	sts	0x00BC, r23
     860:	80 91 cf 00 	lds	r24, 0x00CF
     864:	80 93 c1 00 	sts	0x00C1, r24
     868:	80 91 cd 00 	lds	r24, 0x00CD
     86c:	90 91 ce 00 	lds	r25, 0x00CE
     870:	90 93 c0 00 	sts	0x00C0, r25
     874:	80 93 bf 00 	sts	0x00BF, r24
     878:	c2 0e       	add	r12, r18
     87a:	d3 1e       	adc	r13, r19
     87c:	e1 1c       	adc	r14, r1
     87e:	f1 1c       	adc	r15, r1
     880:	c0 92 b5 00 	sts	0x00B5, r12
     884:	d0 92 b6 00 	sts	0x00B6, r13
     888:	e0 92 b7 00 	sts	0x00B7, r14
     88c:	f0 92 b8 00 	sts	0x00B8, r15
     890:	10 92 d0 03 	sts	0x03D0, r1
     894:	10 92 cf 03 	sts	0x03CF, r1
     898:	8f ef       	ldi	r24, 0xFF	; 255
     89a:	9f ef       	ldi	r25, 0xFF	; 255
     89c:	90 93 de 03 	sts	0x03DE, r25
     8a0:	80 93 dd 03 	sts	0x03DD, r24
     8a4:	8c 2f       	mov	r24, r28
     8a6:	8d 7f       	andi	r24, 0xFD	; 253
     8a8:	84 30       	cpi	r24, 0x04	; 4
     8aa:	29 f0       	breq	.+10     	; 0x8b6 <fatInit+0x10e>
     8ac:	81 e0       	ldi	r24, 0x01	; 1
     8ae:	ce 30       	cpi	r28, 0x0E	; 14
     8b0:	19 f0       	breq	.+6      	; 0x8b8 <fatInit+0x110>
     8b2:	80 e0       	ldi	r24, 0x00	; 0
     8b4:	01 c0       	rjmp	.+2      	; 0x8b8 <fatInit+0x110>
     8b6:	81 e0       	ldi	r24, 0x01	; 1
     8b8:	cf 91       	pop	r28
     8ba:	ff 90       	pop	r15
     8bc:	ef 90       	pop	r14
     8be:	df 90       	pop	r13
     8c0:	cf 90       	pop	r12
     8c2:	08 95       	ret

000008c4 <nextCluster>:
     8c4:	cf 92       	push	r12
     8c6:	df 92       	push	r13
     8c8:	ef 92       	push	r14
     8ca:	ff 92       	push	r15
     8cc:	bc 01       	movw	r22, r24
     8ce:	80 e0       	ldi	r24, 0x00	; 0
     8d0:	90 e0       	ldi	r25, 0x00	; 0
     8d2:	66 0f       	add	r22, r22
     8d4:	77 1f       	adc	r23, r23
     8d6:	88 1f       	adc	r24, r24
     8d8:	99 1f       	adc	r25, r25
     8da:	20 91 bf 00 	lds	r18, 0x00BF
     8de:	30 91 c0 00 	lds	r19, 0x00C0
     8e2:	40 e0       	ldi	r20, 0x00	; 0
     8e4:	50 e0       	ldi	r21, 0x00	; 0
     8e6:	a4 da       	rcall	.-2744   	; 0xfffffe30 <__eeprom_end+0xff7efce7>
     8e8:	6b 01       	movw	r12, r22
     8ea:	7c 01       	movw	r14, r24
     8ec:	60 91 b5 00 	lds	r22, 0x00B5
     8f0:	70 91 b6 00 	lds	r23, 0x00B6
     8f4:	80 91 b7 00 	lds	r24, 0x00B7
     8f8:	90 91 b8 00 	lds	r25, 0x00B8
     8fc:	62 0f       	add	r22, r18
     8fe:	73 1f       	adc	r23, r19
     900:	84 1f       	adc	r24, r20
     902:	95 1f       	adc	r25, r21
     904:	93 dc       	rcall	.-1754   	; 0x22c <mmcReadCached>
     906:	f6 01       	movw	r30, r12
     908:	ee 53       	subi	r30, 0x3E	; 62
     90a:	ff 4f       	sbci	r31, 0xFF	; 255
     90c:	80 81       	ld	r24, Z
     90e:	91 81       	ldd	r25, Z+1	; 0x01
     910:	8f 3f       	cpi	r24, 0xFF	; 255
     912:	2f ef       	ldi	r18, 0xFF	; 255
     914:	92 07       	cpc	r25, r18
     916:	11 f4       	brne	.+4      	; 0x91c <nextCluster+0x58>
     918:	80 e0       	ldi	r24, 0x00	; 0
     91a:	90 e0       	ldi	r25, 0x00	; 0
     91c:	ff 90       	pop	r15
     91e:	ef 90       	pop	r14
     920:	df 90       	pop	r13
     922:	cf 90       	pop	r12
     924:	08 95       	ret

00000926 <fatGetDirEntry>:
     926:	2f 92       	push	r2
     928:	3f 92       	push	r3
     92a:	4f 92       	push	r4
     92c:	5f 92       	push	r5
     92e:	6f 92       	push	r6
     930:	7f 92       	push	r7
     932:	8f 92       	push	r8
     934:	9f 92       	push	r9
     936:	af 92       	push	r10
     938:	bf 92       	push	r11
     93a:	cf 92       	push	r12
     93c:	df 92       	push	r13
     93e:	ef 92       	push	r14
     940:	ff 92       	push	r15
     942:	0f 93       	push	r16
     944:	1f 93       	push	r17
     946:	cf 93       	push	r28
     948:	df 93       	push	r29
     94a:	cd b7       	in	r28, 0x3d	; 61
     94c:	de b7       	in	r29, 0x3e	; 62
     94e:	29 97       	sbiw	r28, 0x09	; 9
     950:	0f b6       	in	r0, 0x3f	; 63
     952:	f8 94       	cli
     954:	de bf       	out	0x3e, r29	; 62
     956:	0f be       	out	0x3f, r0	; 63
     958:	cd bf       	out	0x3d, r28	; 61
     95a:	1c 01       	movw	r2, r24
     95c:	76 2e       	mov	r7, r22
     95e:	00 91 cf 03 	lds	r16, 0x03CF
     962:	10 91 d0 03 	lds	r17, 0x03D0
     966:	80 91 dd 03 	lds	r24, 0x03DD
     96a:	90 91 de 03 	lds	r25, 0x03DE
     96e:	08 17       	cp	r16, r24
     970:	19 07       	cpc	r17, r25
     972:	31 f0       	breq	.+12     	; 0x980 <fatGetDirEntry+0x5a>
     974:	10 93 de 03 	sts	0x03DE, r17
     978:	00 93 dd 03 	sts	0x03DD, r16
     97c:	10 92 df 03 	sts	0x03DF, r1
     980:	80 91 df 03 	lds	r24, 0x03DF
     984:	88 23       	and	r24, r24
     986:	81 f0       	breq	.+32     	; 0x9a8 <fatGetDirEntry+0x82>
     988:	20 91 b3 00 	lds	r18, 0x00B3
     98c:	30 91 b4 00 	lds	r19, 0x00B4
     990:	3e 83       	std	Y+6, r19	; 0x06
     992:	2d 83       	std	Y+5, r18	; 0x05
     994:	22 15       	cp	r18, r2
     996:	33 05       	cpc	r19, r3
     998:	80 f0       	brcs	.+32     	; 0x9ba <fatGetDirEntry+0x94>
     99a:	22 16       	cp	r2, r18
     99c:	33 06       	cpc	r3, r19
     99e:	21 f4       	brne	.+8      	; 0x9a8 <fatGetDirEntry+0x82>
     9a0:	81 30       	cpi	r24, 0x01	; 1
     9a2:	11 f4       	brne	.+4      	; 0x9a8 <fatGetDirEntry+0x82>
     9a4:	77 20       	and	r7, r7
     9a6:	49 f0       	breq	.+18     	; 0x9ba <fatGetDirEntry+0x94>
     9a8:	c8 01       	movw	r24, r16
     9aa:	d3 de       	rcall	.-602    	; 0x752 <fatClustToSect>
     9ac:	4b 01       	movw	r8, r22
     9ae:	5c 01       	movw	r10, r24
     9b0:	61 2c       	mov	r6, r1
     9b2:	1e 82       	std	Y+6, r1	; 0x06
     9b4:	1d 82       	std	Y+5, r1	; 0x05
     9b6:	41 2c       	mov	r4, r1
     9b8:	48 c0       	rjmp	.+144    	; 0xa4a <fatGetDirEntry+0x124>
     9ba:	50 90 ab 00 	lds	r5, 0x00AB
     9be:	c0 90 af 00 	lds	r12, 0x00AF
     9c2:	d0 90 b0 00 	lds	r13, 0x00B0
     9c6:	e0 90 b1 00 	lds	r14, 0x00B1
     9ca:	f0 90 b2 00 	lds	r15, 0x00B2
     9ce:	00 91 ac 00 	lds	r16, 0x00AC
     9d2:	10 91 ad 00 	lds	r17, 0x00AD
     9d6:	60 90 ae 00 	lds	r6, 0x00AE
     9da:	41 2c       	mov	r4, r1
     9dc:	46 01       	movw	r8, r12
     9de:	57 01       	movw	r10, r14
     9e0:	3f ef       	ldi	r19, 0xFF	; 255
     9e2:	83 1a       	sub	r8, r19
     9e4:	93 0a       	sbc	r9, r19
     9e6:	a3 0a       	sbc	r10, r19
     9e8:	b3 0a       	sbc	r11, r19
     9ea:	c7 01       	movw	r24, r14
     9ec:	b6 01       	movw	r22, r12
     9ee:	1e dc       	rcall	.-1988   	; 0x22c <mmcReadCached>
     9f0:	a0 e2       	ldi	r26, 0x20	; 32
     9f2:	5a 9e       	mul	r5, r26
     9f4:	c0 01       	movw	r24, r0
     9f6:	11 24       	eor	r1, r1
     9f8:	8e 53       	subi	r24, 0x3E	; 62
     9fa:	9f 4f       	sbci	r25, 0xFF	; 255
     9fc:	9c 83       	std	Y+4, r25	; 0x04
     9fe:	8b 83       	std	Y+3, r24	; 0x03
     a00:	bc 01       	movw	r22, r24
     a02:	60 5e       	subi	r22, 0xE0	; 224
     a04:	7f 4f       	sbci	r23, 0xFF	; 255
     a06:	eb 81       	ldd	r30, Y+3	; 0x03
     a08:	fc 81       	ldd	r31, Y+4	; 0x04
     a0a:	f0 81       	ld	r31, Z
     a0c:	f9 87       	std	Y+9, r31	; 0x09
     a0e:	ff 23       	and	r31, r31
     a10:	09 f4       	brne	.+2      	; 0xa14 <fatGetDirEntry+0xee>
     a12:	d7 c0       	rjmp	.+430    	; 0xbc2 <fatGetDirEntry+0x29c>
     a14:	f5 3e       	cpi	r31, 0xE5	; 229
     a16:	f1 f4       	brne	.+60     	; 0xa54 <fatGetDirEntry+0x12e>
     a18:	8b 81       	ldd	r24, Y+3	; 0x03
     a1a:	9c 81       	ldd	r25, Y+4	; 0x04
     a1c:	80 96       	adiw	r24, 0x20	; 32
     a1e:	9c 83       	std	Y+4, r25	; 0x04
     a20:	8b 83       	std	Y+3, r24	; 0x03
     a22:	53 94       	inc	r5
     a24:	60 5e       	subi	r22, 0xE0	; 224
     a26:	7f 4f       	sbci	r23, 0xFF	; 255
     a28:	90 e1       	ldi	r25, 0x10	; 16
     a2a:	59 12       	cpse	r5, r25
     a2c:	ec cf       	rjmp	.-40     	; 0xa06 <fatGetDirEntry+0xe0>
     a2e:	01 15       	cp	r16, r1
     a30:	11 05       	cpc	r17, r1
     a32:	09 f0       	breq	.+2      	; 0xa36 <fatGetDirEntry+0x110>
     a34:	b9 c0       	rjmp	.+370    	; 0xba8 <fatGetDirEntry+0x282>
     a36:	26 2d       	mov	r18, r6
     a38:	30 e0       	ldi	r19, 0x00	; 0
     a3a:	80 91 bd 00 	lds	r24, 0x00BD
     a3e:	90 91 be 00 	lds	r25, 0x00BE
     a42:	28 17       	cp	r18, r24
     a44:	39 07       	cpc	r19, r25
     a46:	08 f0       	brcs	.+2      	; 0xa4a <fatGetDirEntry+0x124>
     a48:	18 c1       	rjmp	.+560    	; 0xc7a <fatGetDirEntry+0x354>
     a4a:	63 94       	inc	r6
     a4c:	75 01       	movw	r14, r10
     a4e:	64 01       	movw	r12, r8
     a50:	51 2c       	mov	r5, r1
     a52:	c4 cf       	rjmp	.-120    	; 0x9dc <fatGetDirEntry+0xb6>
     a54:	db 01       	movw	r26, r22
     a56:	55 97       	sbiw	r26, 0x15	; 21
     a58:	8c 91       	ld	r24, X
     a5a:	8f 30       	cpi	r24, 0x0F	; 15
     a5c:	09 f0       	breq	.+2      	; 0xa60 <fatGetDirEntry+0x13a>
     a5e:	49 c0       	rjmp	.+146    	; 0xaf2 <fatGetDirEntry+0x1cc>
     a60:	77 20       	and	r7, r7
     a62:	d1 f2       	breq	.-76     	; 0xa18 <fatGetDirEntry+0xf2>
     a64:	8f 2f       	mov	r24, r31
     a66:	90 e0       	ldi	r25, 0x00	; 0
     a68:	01 97       	sbiw	r24, 0x01	; 1
     a6a:	8f 70       	andi	r24, 0x0F	; 15
     a6c:	99 27       	eor	r25, r25
     a6e:	2d e0       	ldi	r18, 0x0D	; 13
     a70:	28 9f       	mul	r18, r24
     a72:	a0 01       	movw	r20, r0
     a74:	29 9f       	mul	r18, r25
     a76:	50 0d       	add	r21, r0
     a78:	11 24       	eor	r1, r1
     a7a:	4a 53       	subi	r20, 0x3A	; 58
     a7c:	5d 4f       	sbci	r21, 0xFD	; 253
     a7e:	58 87       	std	Y+8, r21	; 0x08
     a80:	4f 83       	std	Y+7, r20	; 0x07
     a82:	80 e0       	ldi	r24, 0x00	; 0
     a84:	90 e0       	ldi	r25, 0x00	; 0
     a86:	ab 81       	ldd	r26, Y+3	; 0x03
     a88:	bc 81       	ldd	r27, Y+4	; 0x04
     a8a:	a8 0f       	add	r26, r24
     a8c:	b9 1f       	adc	r27, r25
     a8e:	11 96       	adiw	r26, 0x01	; 1
     a90:	3c 91       	ld	r19, X
     a92:	af 81       	ldd	r26, Y+7	; 0x07
     a94:	b8 85       	ldd	r27, Y+8	; 0x08
     a96:	3d 93       	st	X+, r19
     a98:	b8 87       	std	Y+8, r27	; 0x08
     a9a:	af 83       	std	Y+7, r26	; 0x07
     a9c:	02 96       	adiw	r24, 0x02	; 2
     a9e:	8a 30       	cpi	r24, 0x0A	; 10
     aa0:	91 05       	cpc	r25, r1
     aa2:	89 f7       	brne	.-30     	; 0xa86 <fatGetDirEntry+0x160>
     aa4:	da 01       	movw	r26, r20
     aa6:	15 96       	adiw	r26, 0x05	; 5
     aa8:	80 e0       	ldi	r24, 0x00	; 0
     aaa:	90 e0       	ldi	r25, 0x00	; 0
     aac:	eb 81       	ldd	r30, Y+3	; 0x03
     aae:	fc 81       	ldd	r31, Y+4	; 0x04
     ab0:	e8 0f       	add	r30, r24
     ab2:	f9 1f       	adc	r31, r25
     ab4:	36 85       	ldd	r19, Z+14	; 0x0e
     ab6:	3d 93       	st	X+, r19
     ab8:	02 96       	adiw	r24, 0x02	; 2
     aba:	8c 30       	cpi	r24, 0x0C	; 12
     abc:	91 05       	cpc	r25, r1
     abe:	b1 f7       	brne	.-20     	; 0xaac <fatGetDirEntry+0x186>
     ac0:	db 01       	movw	r26, r22
     ac2:	14 97       	sbiw	r26, 0x04	; 4
     ac4:	8c 91       	ld	r24, X
     ac6:	da 01       	movw	r26, r20
     ac8:	1b 96       	adiw	r26, 0x0b	; 11
     aca:	8c 93       	st	X, r24
     acc:	db 01       	movw	r26, r22
     ace:	12 97       	sbiw	r26, 0x02	; 2
     ad0:	8c 91       	ld	r24, X
     ad2:	fa 01       	movw	r30, r20
     ad4:	84 87       	std	Z+12, r24	; 0x0c
     ad6:	f9 85       	ldd	r31, Y+9	; 0x09
     ad8:	f6 ff       	sbrs	r31, 6
     ada:	03 c0       	rjmp	.+6      	; 0xae2 <fatGetDirEntry+0x1bc>
     adc:	da 01       	movw	r26, r20
     ade:	1d 96       	adiw	r26, 0x0d	; 13
     ae0:	1c 92       	st	X, r1
     ae2:	29 85       	ldd	r18, Y+9	; 0x09
     ae4:	2f 70       	andi	r18, 0x0F	; 15
     ae6:	21 30       	cpi	r18, 0x01	; 1
     ae8:	09 f0       	breq	.+2      	; 0xaec <fatGetDirEntry+0x1c6>
     aea:	96 cf       	rjmp	.-212    	; 0xa18 <fatGetDirEntry+0xf2>
     aec:	44 24       	eor	r4, r4
     aee:	43 94       	inc	r4
     af0:	93 cf       	rjmp	.-218    	; 0xa18 <fatGetDirEntry+0xf2>
     af2:	44 20       	and	r4, r4
     af4:	61 f0       	breq	.+24     	; 0xb0e <fatGetDirEntry+0x1e8>
     af6:	2d 81       	ldd	r18, Y+5	; 0x05
     af8:	3e 81       	ldd	r19, Y+6	; 0x06
     afa:	22 15       	cp	r18, r2
     afc:	33 05       	cpc	r19, r3
     afe:	09 f4       	brne	.+2      	; 0xb02 <fatGetDirEntry+0x1dc>
     b00:	62 c0       	rjmp	.+196    	; 0xbc6 <fatGetDirEntry+0x2a0>
     b02:	2f 5f       	subi	r18, 0xFF	; 255
     b04:	3f 4f       	sbci	r19, 0xFF	; 255
     b06:	3e 83       	std	Y+6, r19	; 0x06
     b08:	2d 83       	std	Y+5, r18	; 0x05
     b0a:	41 2c       	mov	r4, r1
     b0c:	85 cf       	rjmp	.-246    	; 0xa18 <fatGetDirEntry+0xf2>
     b0e:	39 85       	ldd	r19, Y+9	; 0x09
     b10:	3e 32       	cpi	r19, 0x2E	; 46
     b12:	39 f4       	brne	.+14     	; 0xb22 <fatGetDirEntry+0x1fc>
     b14:	db 01       	movw	r26, r22
     b16:	5f 97       	sbiw	r26, 0x1f	; 31
     b18:	9c 91       	ld	r25, X
     b1a:	90 32       	cpi	r25, 0x20	; 32
     b1c:	11 f4       	brne	.+4      	; 0xb22 <fatGetDirEntry+0x1fc>
     b1e:	84 fd       	sbrc	r24, 4
     b20:	7b cf       	rjmp	.-266    	; 0xa18 <fatGetDirEntry+0xf2>
     b22:	83 fd       	sbrc	r24, 3
     b24:	79 cf       	rjmp	.-270    	; 0xa18 <fatGetDirEntry+0xf2>
     b26:	2d 81       	ldd	r18, Y+5	; 0x05
     b28:	3e 81       	ldd	r19, Y+6	; 0x06
     b2a:	22 15       	cp	r18, r2
     b2c:	33 05       	cpc	r19, r3
     b2e:	a9 f5       	brne	.+106    	; 0xb9a <fatGetDirEntry+0x274>
     b30:	8b 81       	ldd	r24, Y+3	; 0x03
     b32:	9c 81       	ldd	r25, Y+4	; 0x04
     b34:	a6 ec       	ldi	r26, 0xC6	; 198
     b36:	b2 e0       	ldi	r27, 0x02	; 2
     b38:	fc 01       	movw	r30, r24
     b3a:	21 91       	ld	r18, Z+
     b3c:	cf 01       	movw	r24, r30
     b3e:	2d 93       	st	X+, r18
     b40:	f2 e0       	ldi	r31, 0x02	; 2
     b42:	a1 3d       	cpi	r26, 0xD1	; 209
     b44:	bf 07       	cpc	r27, r31
     b46:	c1 f7       	brne	.-16     	; 0xb38 <fatGetDirEntry+0x212>
     b48:	10 92 d1 02 	sts	0x02D1, r1
     b4c:	77 20       	and	r7, r7
     b4e:	e9 f1       	breq	.+122    	; 0xbca <fatGetDirEntry+0x2a4>
     b50:	10 92 d2 02 	sts	0x02D2, r1
     b54:	80 91 d0 02 	lds	r24, 0x02D0
     b58:	80 93 d1 02 	sts	0x02D1, r24
     b5c:	80 91 cf 02 	lds	r24, 0x02CF
     b60:	80 93 d0 02 	sts	0x02D0, r24
     b64:	80 91 ce 02 	lds	r24, 0x02CE
     b68:	80 93 cf 02 	sts	0x02CF, r24
     b6c:	80 91 c6 02 	lds	r24, 0x02C6
     b70:	8e 32       	cpi	r24, 0x2E	; 46
     b72:	19 f0       	breq	.+6      	; 0xb7a <fatGetDirEntry+0x254>
     b74:	8e e2       	ldi	r24, 0x2E	; 46
     b76:	80 93 ce 02 	sts	0x02CE, r24
     b7a:	86 ec       	ldi	r24, 0xC6	; 198
     b7c:	92 e0       	ldi	r25, 0x02	; 2
     b7e:	dc 01       	movw	r26, r24
     b80:	fc 01       	movw	r30, r24
     b82:	21 91       	ld	r18, Z+
     b84:	cf 01       	movw	r24, r30
     b86:	20 32       	cpi	r18, 0x20	; 32
     b88:	11 f0       	breq	.+4      	; 0xb8e <fatGetDirEntry+0x268>
     b8a:	2c 93       	st	X, r18
     b8c:	11 96       	adiw	r26, 0x01	; 1
     b8e:	fc 01       	movw	r30, r24
     b90:	20 81       	ld	r18, Z
     b92:	21 11       	cpse	r18, r1
     b94:	f5 cf       	rjmp	.-22     	; 0xb80 <fatGetDirEntry+0x25a>
     b96:	1c 92       	st	X, r1
     b98:	18 c0       	rjmp	.+48     	; 0xbca <fatGetDirEntry+0x2a4>
     b9a:	2d 81       	ldd	r18, Y+5	; 0x05
     b9c:	3e 81       	ldd	r19, Y+6	; 0x06
     b9e:	2f 5f       	subi	r18, 0xFF	; 255
     ba0:	3f 4f       	sbci	r19, 0xFF	; 255
     ba2:	3e 83       	std	Y+6, r19	; 0x06
     ba4:	2d 83       	std	Y+5, r18	; 0x05
     ba6:	38 cf       	rjmp	.-400    	; 0xa18 <fatGetDirEntry+0xf2>
     ba8:	80 91 c1 00 	lds	r24, 0x00C1
     bac:	68 16       	cp	r6, r24
     bae:	08 f4       	brcc	.+2      	; 0xbb2 <fatGetDirEntry+0x28c>
     bb0:	4c cf       	rjmp	.-360    	; 0xa4a <fatGetDirEntry+0x124>
     bb2:	c8 01       	movw	r24, r16
     bb4:	87 de       	rcall	.-754    	; 0x8c4 <nextCluster>
     bb6:	8c 01       	movw	r16, r24
     bb8:	cc dd       	rcall	.-1128   	; 0x752 <fatClustToSect>
     bba:	4b 01       	movw	r8, r22
     bbc:	5c 01       	movw	r10, r24
     bbe:	61 2c       	mov	r6, r1
     bc0:	44 cf       	rjmp	.-376    	; 0xa4a <fatGetDirEntry+0x124>
     bc2:	80 e0       	ldi	r24, 0x00	; 0
     bc4:	03 c0       	rjmp	.+6      	; 0xbcc <fatGetDirEntry+0x2a6>
     bc6:	82 e0       	ldi	r24, 0x02	; 2
     bc8:	01 c0       	rjmp	.+2      	; 0xbcc <fatGetDirEntry+0x2a6>
     bca:	81 e0       	ldi	r24, 0x01	; 1
     bcc:	ab 81       	ldd	r26, Y+3	; 0x03
     bce:	bc 81       	ldd	r27, Y+4	; 0x04
     bd0:	5a 96       	adiw	r26, 0x1a	; 26
     bd2:	2d 91       	ld	r18, X+
     bd4:	3c 91       	ld	r19, X
     bd6:	5b 97       	sbiw	r26, 0x1b	; 27
     bd8:	30 93 ce 03 	sts	0x03CE, r19
     bdc:	20 93 cd 03 	sts	0x03CD, r18
     be0:	30 92 d6 03 	sts	0x03D6, r3
     be4:	20 92 d5 03 	sts	0x03D5, r2
     be8:	5c 96       	adiw	r26, 0x1c	; 28
     bea:	4d 91       	ld	r20, X+
     bec:	5d 91       	ld	r21, X+
     bee:	6d 91       	ld	r22, X+
     bf0:	7c 91       	ld	r23, X
     bf2:	5f 97       	sbiw	r26, 0x1f	; 31
     bf4:	40 93 d7 03 	sts	0x03D7, r20
     bf8:	50 93 d8 03 	sts	0x03D8, r21
     bfc:	60 93 d9 03 	sts	0x03D9, r22
     c00:	70 93 da 03 	sts	0x03DA, r23
     c04:	1b 96       	adiw	r26, 0x0b	; 11
     c06:	9c 91       	ld	r25, X
     c08:	1b 97       	sbiw	r26, 0x0b	; 11
     c0a:	90 93 c7 03 	sts	0x03C7, r25
     c0e:	57 96       	adiw	r26, 0x17	; 23
     c10:	2c 91       	ld	r18, X
     c12:	57 97       	sbiw	r26, 0x17	; 23
     c14:	30 e0       	ldi	r19, 0x00	; 0
     c16:	32 2f       	mov	r19, r18
     c18:	22 27       	eor	r18, r18
     c1a:	56 96       	adiw	r26, 0x16	; 22
     c1c:	9c 91       	ld	r25, X
     c1e:	56 97       	sbiw	r26, 0x16	; 22
     c20:	29 2b       	or	r18, r25
     c22:	30 93 cb 03 	sts	0x03CB, r19
     c26:	20 93 ca 03 	sts	0x03CA, r18
     c2a:	59 96       	adiw	r26, 0x19	; 25
     c2c:	2c 91       	ld	r18, X
     c2e:	59 97       	sbiw	r26, 0x19	; 25
     c30:	30 e0       	ldi	r19, 0x00	; 0
     c32:	32 2f       	mov	r19, r18
     c34:	22 27       	eor	r18, r18
     c36:	58 96       	adiw	r26, 0x18	; 24
     c38:	9c 91       	ld	r25, X
     c3a:	29 2b       	or	r18, r25
     c3c:	30 93 c9 03 	sts	0x03C9, r19
     c40:	20 93 c8 03 	sts	0x03C8, r18
     c44:	88 23       	and	r24, r24
     c46:	c9 f0       	breq	.+50     	; 0xc7a <fatGetDirEntry+0x354>
     c48:	2d 81       	ldd	r18, Y+5	; 0x05
     c4a:	3e 81       	ldd	r19, Y+6	; 0x06
     c4c:	30 93 b4 00 	sts	0x00B4, r19
     c50:	20 93 b3 00 	sts	0x00B3, r18
     c54:	50 92 ab 00 	sts	0x00AB, r5
     c58:	c0 92 af 00 	sts	0x00AF, r12
     c5c:	d0 92 b0 00 	sts	0x00B0, r13
     c60:	e0 92 b1 00 	sts	0x00B1, r14
     c64:	f0 92 b2 00 	sts	0x00B2, r15
     c68:	10 93 ad 00 	sts	0x00AD, r17
     c6c:	00 93 ac 00 	sts	0x00AC, r16
     c70:	60 92 ae 00 	sts	0x00AE, r6
     c74:	80 93 df 03 	sts	0x03DF, r24
     c78:	01 c0       	rjmp	.+2      	; 0xc7c <fatGetDirEntry+0x356>
     c7a:	80 e0       	ldi	r24, 0x00	; 0
     c7c:	29 96       	adiw	r28, 0x09	; 9
     c7e:	0f b6       	in	r0, 0x3f	; 63
     c80:	f8 94       	cli
     c82:	de bf       	out	0x3e, r29	; 62
     c84:	0f be       	out	0x3f, r0	; 63
     c86:	cd bf       	out	0x3d, r28	; 61
     c88:	df 91       	pop	r29
     c8a:	cf 91       	pop	r28
     c8c:	1f 91       	pop	r17
     c8e:	0f 91       	pop	r16
     c90:	ff 90       	pop	r15
     c92:	ef 90       	pop	r14
     c94:	df 90       	pop	r13
     c96:	cf 90       	pop	r12
     c98:	bf 90       	pop	r11
     c9a:	af 90       	pop	r10
     c9c:	9f 90       	pop	r9
     c9e:	8f 90       	pop	r8
     ca0:	7f 90       	pop	r7
     ca2:	6f 90       	pop	r6
     ca4:	5f 90       	pop	r5
     ca6:	4f 90       	pop	r4
     ca8:	3f 90       	pop	r3
     caa:	2f 90       	pop	r2
     cac:	08 95       	ret

00000cae <Delay100us>:
     cae:	81 e0       	ldi	r24, 0x01	; 1
     cb0:	06 c0       	rjmp	.+12     	; 0xcbe <Delay100usX>

00000cb2 <Delay200us>:
     cb2:	82 e0       	ldi	r24, 0x02	; 2
     cb4:	04 c0       	rjmp	.+8      	; 0xcbe <Delay100usX>

00000cb6 <Delay800us>:
     cb6:	88 e0       	ldi	r24, 0x08	; 8
     cb8:	02 c0       	rjmp	.+4      	; 0xcbe <Delay100usX>

00000cba <Delay1000us>:
     cba:	8a e0       	ldi	r24, 0x0A	; 10
     cbc:	00 c0       	rjmp	.+0      	; 0xcbe <Delay100usX>

00000cbe <Delay100usX>:
     cbe:	9e ee       	ldi	r25, 0xEE	; 238

00000cc0 <dela1>:
     cc0:	9a 95       	dec	r25
     cc2:	f1 f7       	brne	.-4      	; 0xcc0 <dela1>
     cc4:	9e ee       	ldi	r25, 0xEE	; 238

00000cc6 <dela2>:
     cc6:	9a 95       	dec	r25
     cc8:	f1 f7       	brne	.-4      	; 0xcc6 <dela2>
     cca:	8a 95       	dec	r24
     ccc:	c1 f7       	brne	.-16     	; 0xcbe <Delay100usX>
     cce:	08 95       	ret

00000cd0 <main>:
     cd0:	cf 93       	push	r28
     cd2:	df 93       	push	r29
     cd4:	cd b7       	in	r28, 0x3d	; 61
     cd6:	de b7       	in	r29, 0x3e	; 62
     cd8:	65 97       	sbiw	r28, 0x15	; 21
     cda:	0f b6       	in	r0, 0x3f	; 63
     cdc:	f8 94       	cli
     cde:	de bf       	out	0x3e, r29	; 62
     ce0:	0f be       	out	0x3f, r0	; 63
     ce2:	cd bf       	out	0x3d, r28	; 61
     ce4:	e0 e6       	ldi	r30, 0x60	; 96
     ce6:	f0 e0       	ldi	r31, 0x00	; 0
     ce8:	85 e5       	ldi	r24, 0x55	; 85
     cea:	81 93       	st	Z+, r24
     cec:	ef 31       	cpi	r30, 0x1F	; 31
     cee:	24 e0       	ldi	r18, 0x04	; 4
     cf0:	f2 07       	cpc	r31, r18
     cf2:	d9 f7       	brne	.-10     	; 0xcea <main+0x1a>
     cf4:	8a ea       	ldi	r24, 0xAA	; 170
     cf6:	9a ea       	ldi	r25, 0xAA	; 170
     cf8:	dc 01       	movw	r26, r24
     cfa:	80 93 e0 03 	sts	0x03E0, r24
     cfe:	90 93 e1 03 	sts	0x03E1, r25
     d02:	a0 93 e2 03 	sts	0x03E2, r26
     d06:	b0 93 e3 03 	sts	0x03E3, r27
     d0a:	a0 9a       	sbi	0x14, 0	; 20
     d0c:	a1 9a       	sbi	0x14, 1	; 20
     d0e:	a2 9a       	sbi	0x14, 2	; 20
     d10:	a3 9a       	sbi	0x14, 3	; 20
     d12:	a4 9a       	sbi	0x14, 4	; 20
     d14:	a5 9a       	sbi	0x14, 5	; 20
     d16:	b8 98       	cbi	0x17, 0	; 23
     d18:	b9 98       	cbi	0x17, 1	; 23
     d1a:	8a 98       	cbi	0x11, 2	; 17
     d1c:	8b 98       	cbi	0x11, 3	; 17
     d1e:	8c 98       	cbi	0x11, 4	; 17
     d20:	8d 98       	cbi	0x11, 5	; 17
     d22:	8e 98       	cbi	0x11, 6	; 17
     d24:	8f 98       	cbi	0x11, 7	; 17
     d26:	c0 9a       	sbi	0x18, 0	; 24
     d28:	c1 9a       	sbi	0x18, 1	; 24
     d2a:	92 9a       	sbi	0x12, 2	; 18
     d2c:	93 9a       	sbi	0x12, 3	; 18
     d2e:	94 9a       	sbi	0x12, 4	; 18
     d30:	95 9a       	sbi	0x12, 5	; 18
     d32:	96 9a       	sbi	0x12, 6	; 18
     d34:	97 9a       	sbi	0x12, 7	; 18
     d36:	5d e7       	ldi	r21, 0x7D	; 125
     d38:	c5 2e       	mov	r12, r21
     d3a:	d1 2c       	mov	r13, r1
     d3c:	e1 2c       	mov	r14, r1
     d3e:	f1 2c       	mov	r15, r1
     d40:	10 92 dc 03 	sts	0x03DC, r1
     d44:	1a 82       	std	Y+2, r1	; 0x02
     d46:	1c 82       	std	Y+4, r1	; 0x04
     d48:	10 92 cc 03 	sts	0x03CC, r1
     d4c:	80 e6       	ldi	r24, 0x60	; 96
     d4e:	90 e0       	ldi	r25, 0x00	; 0
     d50:	91 d8       	rcall	.-3806   	; 0xfffffe74 <__eeprom_end+0xff7efd2b>
     d52:	8b 83       	std	Y+3, r24	; 0x03
     d54:	83 b3       	in	r24, 0x13	; 19
     d56:	8f 63       	ori	r24, 0x3F	; 63
     d58:	85 bb       	out	0x15, r24	; 21
     d5a:	8e e2       	ldi	r24, 0x2E	; 46
     d5c:	c4 d9       	rcall	.-3192   	; 0xe6 <USART_Init>
     d5e:	ad 98       	cbi	0x15, 5	; 21
     d60:	82 99       	sbic	0x10, 2	; 16
     d62:	fe cf       	rjmp	.-4      	; 0xd60 <main+0x90>
     d64:	2a dc       	rcall	.-1964   	; 0x5ba <mmcInit>
     d66:	60 dc       	rcall	.-1856   	; 0x628 <mmcReset>
     d68:	81 11       	cpse	r24, r1
     d6a:	fc cf       	rjmp	.-8      	; 0xd64 <main+0x94>
     d6c:	70 9a       	sbi	0x0e, 0	; 14
     d6e:	69 98       	cbi	0x0d, 1	; 13
     d70:	68 98       	cbi	0x0d, 0	; 13
     d72:	10 92 6e 00 	sts	0x006E, r1
     d76:	10 92 7d 00 	sts	0x007D, r1
     d7a:	10 92 8c 00 	sts	0x008C, r1
     d7e:	10 92 9b 00 	sts	0x009B, r1
     d82:	10 92 aa 00 	sts	0x00AA, r1
     d86:	10 92 db 03 	sts	0x03DB, r1
     d8a:	71 2c       	mov	r7, r1
     d8c:	19 82       	std	Y+1, r1	; 0x01
     d8e:	8f ef       	ldi	r24, 0xFF	; 255
     d90:	87 0d       	add	r24, r7
     d92:	84 30       	cpi	r24, 0x04	; 4
     d94:	70 f4       	brcc	.+28     	; 0xdb2 <main+0xe2>
     d96:	ad ec       	ldi	r26, 0xCD	; 205
     d98:	b3 e0       	ldi	r27, 0x03	; 3
     d9a:	3f e0       	ldi	r19, 0x0F	; 15
     d9c:	73 9e       	mul	r7, r19
     d9e:	f0 01       	movw	r30, r0
     da0:	11 24       	eor	r1, r1
     da2:	e0 5a       	subi	r30, 0xA0	; 160
     da4:	ff 4f       	sbci	r31, 0xFF	; 255
     da6:	8d 91       	ld	r24, X+
     da8:	81 93       	st	Z+, r24
     daa:	83 e0       	ldi	r24, 0x03	; 3
     dac:	ac 3d       	cpi	r26, 0xDC	; 220
     dae:	b8 07       	cpc	r27, r24
     db0:	d1 f7       	brne	.-12     	; 0xda6 <main+0xd6>
     db2:	fa dc       	rcall	.-1548   	; 0x7a8 <fatInit>
     db4:	88 23       	and	r24, r24
     db6:	19 f0       	breq	.+6      	; 0xdbe <main+0xee>
     db8:	00 e0       	ldi	r16, 0x00	; 0
     dba:	10 e0       	ldi	r17, 0x00	; 0
     dbc:	15 c0       	rjmp	.+42     	; 0xde8 <main+0x118>
     dbe:	ad 9a       	sbi	0x15, 5	; 21
     dc0:	82 9b       	sbis	0x10, 2	; 16
     dc2:	fe cf       	rjmp	.-4      	; 0xdc0 <main+0xf0>
     dc4:	bd cf       	rjmp	.-134    	; 0xd40 <main+0x70>
     dc6:	ff ef       	ldi	r31, 0xFF	; 255
     dc8:	af 1a       	sub	r10, r31
     dca:	bf 0a       	sbc	r11, r31
     dcc:	21 ed       	ldi	r18, 0xD1	; 209
     dce:	82 16       	cp	r8, r18
     dd0:	22 e0       	ldi	r18, 0x02	; 2
     dd2:	92 06       	cpc	r9, r18
     dd4:	c1 f0       	breq	.+48     	; 0xe06 <main+0x136>
     dd6:	f4 01       	movw	r30, r8
     dd8:	71 90       	ld	r7, Z+
     dda:	4f 01       	movw	r8, r30
     ddc:	c5 01       	movw	r24, r10
     dde:	4a d8       	rcall	.-3948   	; 0xfffffe74 <__eeprom_end+0xff7efd2b>
     de0:	78 16       	cp	r7, r24
     de2:	89 f3       	breq	.-30     	; 0xdc6 <main+0xf6>
     de4:	0f 5f       	subi	r16, 0xFF	; 255
     de6:	1f 4f       	sbci	r17, 0xFF	; 255
     de8:	60 e0       	ldi	r22, 0x00	; 0
     dea:	c8 01       	movw	r24, r16
     dec:	9c dd       	rcall	.-1224   	; 0x926 <fatGetDirEntry>
     dee:	88 23       	and	r24, r24
     df0:	09 f4       	brne	.+2      	; 0xdf4 <main+0x124>
     df2:	4c c0       	rjmp	.+152    	; 0xe8c <main+0x1bc>
     df4:	36 ec       	ldi	r19, 0xC6	; 198
     df6:	83 2e       	mov	r8, r19
     df8:	32 e0       	ldi	r19, 0x02	; 2
     dfa:	93 2e       	mov	r9, r19
     dfc:	41 e6       	ldi	r20, 0x61	; 97
     dfe:	a4 2e       	mov	r10, r20
     e00:	40 e0       	ldi	r20, 0x00	; 0
     e02:	b4 2e       	mov	r11, r20
     e04:	e8 cf       	rjmp	.-48     	; 0xdd6 <main+0x106>
     e06:	80 91 cd 03 	lds	r24, 0x03CD
     e0a:	90 91 ce 03 	lds	r25, 0x03CE
     e0e:	90 93 d2 03 	sts	0x03D2, r25
     e12:	80 93 d1 03 	sts	0x03D1, r24
     e16:	10 92 d4 03 	sts	0x03D4, r1
     e1a:	10 92 d3 03 	sts	0x03D3, r1
     e1e:	20 e1       	ldi	r18, 0x10	; 16
     e20:	30 e0       	ldi	r19, 0x00	; 0
     e22:	40 e0       	ldi	r20, 0x00	; 0
     e24:	50 e0       	ldi	r21, 0x00	; 0
     e26:	ba 01       	movw	r22, r20
     e28:	80 e0       	ldi	r24, 0x00	; 0
     e2a:	61 da       	rcall	.-2878   	; 0x2ee <faccess_offset>
     e2c:	81 e0       	ldi	r24, 0x01	; 1
     e2e:	80 93 db 03 	sts	0x03DB, r24
     e32:	80 91 cb 02 	lds	r24, 0x02CB
     e36:	90 91 ca 02 	lds	r25, 0x02CA
     e3a:	89 2b       	or	r24, r25
     e3c:	81 30       	cpi	r24, 0x01	; 1
     e3e:	19 f4       	brne	.+6      	; 0xe46 <main+0x176>
     e40:	81 e2       	ldi	r24, 0x21	; 33
     e42:	80 93 db 03 	sts	0x03DB, r24
     e46:	60 91 d7 03 	lds	r22, 0x03D7
     e4a:	70 91 d8 03 	lds	r23, 0x03D8
     e4e:	80 91 d9 03 	lds	r24, 0x03D9
     e52:	90 91 da 03 	lds	r25, 0x03DA
     e56:	60 51       	subi	r22, 0x10	; 16
     e58:	71 09       	sbc	r23, r1
     e5a:	81 09       	sbc	r24, r1
     e5c:	91 09       	sbc	r25, r1
     e5e:	10 91 db 03 	lds	r17, 0x03DB
     e62:	15 ff       	sbrs	r17, 5
     e64:	05 c0       	rjmp	.+10     	; 0xe70 <main+0x1a0>
     e66:	20 e0       	ldi	r18, 0x00	; 0
     e68:	31 e0       	ldi	r19, 0x01	; 1
     e6a:	40 e0       	ldi	r20, 0x00	; 0
     e6c:	50 e0       	ldi	r21, 0x00	; 0
     e6e:	04 c0       	rjmp	.+8      	; 0xe78 <main+0x1a8>
     e70:	20 e8       	ldi	r18, 0x80	; 128
     e72:	30 e0       	ldi	r19, 0x00	; 0
     e74:	40 e0       	ldi	r20, 0x00	; 0
     e76:	50 e0       	ldi	r21, 0x00	; 0
     e78:	db d7       	rcall	.+4022   	; 0x1e30 <__udivmodsi4>
     e7a:	21 3d       	cpi	r18, 0xD1	; 209
     e7c:	32 40       	sbci	r19, 0x02	; 2
     e7e:	41 05       	cpc	r20, r1
     e80:	51 05       	cpc	r21, r1
     e82:	70 f0       	brcs	.+28     	; 0xea0 <main+0x1d0>
     e84:	10 68       	ori	r17, 0x80	; 128
     e86:	10 93 db 03 	sts	0x03DB, r17
     e8a:	0a c0       	rjmp	.+20     	; 0xea0 <main+0x1d0>
     e8c:	10 92 db 03 	sts	0x03DB, r1
     e90:	89 81       	ldd	r24, Y+1	; 0x01
     e92:	81 11       	cpse	r24, r1
     e94:	05 c0       	rjmp	.+10     	; 0xea0 <main+0x1d0>
     e96:	96 b3       	in	r25, 0x16	; 22
     e98:	93 70       	andi	r25, 0x03	; 3
     e9a:	84 e0       	ldi	r24, 0x04	; 4
     e9c:	89 1b       	sub	r24, r25
     e9e:	89 83       	std	Y+1, r24	; 0x01
     ea0:	89 81       	ldd	r24, Y+1	; 0x01
     ea2:	40 db       	rcall	.-2432   	; 0x524 <set_display>
     ea4:	71 2c       	mov	r7, r1
     ea6:	ad 9a       	sbi	0x15, 5	; 21
     ea8:	81 2c       	mov	r8, r1
     eaa:	91 2c       	mov	r9, r1
     eac:	54 01       	movw	r10, r8
     eae:	14 e0       	ldi	r17, 0x04	; 4
     eb0:	01 e0       	ldi	r16, 0x01	; 1
     eb2:	84 9b       	sbis	0x10, 4	; 16
     eb4:	3a c0       	rjmp	.+116    	; 0xf2a <main+0x25a>
     eb6:	90 b3       	in	r25, 0x10	; 16
     eb8:	94 7e       	andi	r25, 0xE4	; 228
     eba:	80 91 dc 03 	lds	r24, 0x03DC
     ebe:	98 17       	cp	r25, r24
     ec0:	09 f1       	breq	.+66     	; 0xf04 <main+0x234>
     ec2:	82 99       	sbic	0x10, 2	; 16
     ec4:	3d cf       	rjmp	.-390    	; 0xd40 <main+0x70>
     ec6:	90 3a       	cpi	r25, 0xA0	; 160
     ec8:	31 f0       	breq	.+12     	; 0xed6 <main+0x206>
     eca:	90 3c       	cpi	r25, 0xC0	; 192
     ecc:	09 f4       	brne	.+2      	; 0xed0 <main+0x200>
     ece:	5e cf       	rjmp	.-324    	; 0xd8c <main+0xbc>
     ed0:	90 36       	cpi	r25, 0x60	; 96
     ed2:	79 f4       	brne	.+30     	; 0xef2 <main+0x222>
     ed4:	07 c0       	rjmp	.+14     	; 0xee4 <main+0x214>
     ed6:	89 81       	ldd	r24, Y+1	; 0x01
     ed8:	82 30       	cpi	r24, 0x02	; 2
     eda:	10 f0       	brcs	.+4      	; 0xee0 <main+0x210>
     edc:	81 50       	subi	r24, 0x01	; 1
     ede:	06 c0       	rjmp	.+12     	; 0xeec <main+0x21c>
     ee0:	19 83       	std	Y+1, r17	; 0x01
     ee2:	07 c0       	rjmp	.+14     	; 0xef2 <main+0x222>
     ee4:	89 81       	ldd	r24, Y+1	; 0x01
     ee6:	84 30       	cpi	r24, 0x04	; 4
     ee8:	18 f4       	brcc	.+6      	; 0xef0 <main+0x220>
     eea:	8f 5f       	subi	r24, 0xFF	; 255
     eec:	89 83       	std	Y+1, r24	; 0x01
     eee:	01 c0       	rjmp	.+2      	; 0xef2 <main+0x222>
     ef0:	09 83       	std	Y+1, r16	; 0x01
     ef2:	89 81       	ldd	r24, Y+1	; 0x01
     ef4:	9a 8b       	std	Y+18, r25	; 0x12
     ef6:	16 db       	rcall	.-2516   	; 0x524 <set_display>
     ef8:	9a 89       	ldd	r25, Y+18	; 0x12
     efa:	90 93 dc 03 	sts	0x03DC, r25
     efe:	84 ef       	ldi	r24, 0xF4	; 244
     f00:	91 e0       	ldi	r25, 0x01	; 1
     f02:	dd de       	rcall	.-582    	; 0xcbe <Delay100usX>
     f04:	91 ea       	ldi	r25, 0xA1	; 161
     f06:	89 16       	cp	r8, r25
     f08:	90 ef       	ldi	r25, 0xF0	; 240
     f0a:	99 06       	cpc	r9, r25
     f0c:	99 e1       	ldi	r25, 0x19	; 25
     f0e:	a9 06       	cpc	r10, r25
     f10:	b1 04       	cpc	r11, r1
     f12:	28 f0       	brcs	.+10     	; 0xf1e <main+0x24e>
     f14:	83 d9       	rcall	.-3322   	; 0x21c <mmcWriteCachedFlush>
     f16:	81 2c       	mov	r8, r1
     f18:	91 2c       	mov	r9, r1
     f1a:	54 01       	movw	r10, r8
     f1c:	ca cf       	rjmp	.-108    	; 0xeb2 <main+0x1e2>
     f1e:	ef ef       	ldi	r30, 0xFF	; 255
     f20:	8e 1a       	sub	r8, r30
     f22:	9e 0a       	sbc	r9, r30
     f24:	ae 0a       	sbc	r10, r30
     f26:	be 0a       	sbc	r11, r30
     f28:	c4 cf       	rjmp	.-120    	; 0xeb2 <main+0x1e2>
     f2a:	40 e0       	ldi	r20, 0x00	; 0
     f2c:	64 e0       	ldi	r22, 0x04	; 4
     f2e:	70 e0       	ldi	r23, 0x00	; 0
     f30:	ce 01       	movw	r24, r28
     f32:	09 96       	adiw	r24, 0x09	; 9
     f34:	02 d9       	rcall	.-3580   	; 0x13a <USART_Get_Buffer_And_Check>
     f36:	18 2f       	mov	r17, r24
     f38:	be de       	rcall	.-644    	; 0xcb6 <Delay800us>
     f3a:	84 9b       	sbis	0x10, 4	; 16
     f3c:	fe cf       	rjmp	.-4      	; 0xf3a <main+0x26a>
     f3e:	b7 de       	rcall	.-658    	; 0xcae <Delay100us>
     f40:	11 23       	and	r17, r17
     f42:	99 f0       	breq	.+38     	; 0xf6a <main+0x29a>
     f44:	11 fd       	sbrc	r17, 1
     f46:	af cf       	rjmp	.-162    	; 0xea6 <main+0x1d6>
     f48:	8b 81       	ldd	r24, Y+3	; 0x03
     f4a:	88 32       	cpi	r24, 0x28	; 40
     f4c:	29 f0       	breq	.+10     	; 0xf58 <main+0x288>
     f4e:	81 e0       	ldi	r24, 0x01	; 1
     f50:	9a 81       	ldd	r25, Y+2	; 0x02
     f52:	91 11       	cpse	r25, r1
     f54:	80 e0       	ldi	r24, 0x00	; 0
     f56:	8a 83       	std	Y+2, r24	; 0x02
     f58:	8a 81       	ldd	r24, Y+2	; 0x02
     f5a:	88 23       	and	r24, r24
     f5c:	19 f0       	breq	.+6      	; 0xf64 <main+0x294>
     f5e:	8b 81       	ldd	r24, Y+3	; 0x03
     f60:	8a 5f       	subi	r24, 0xFA	; 250
     f62:	01 c0       	rjmp	.+2      	; 0xf66 <main+0x296>
     f64:	8e e2       	ldi	r24, 0x2E	; 46
     f66:	bf d8       	rcall	.-3714   	; 0xe6 <USART_Init>
     f68:	9e cf       	rjmp	.-196    	; 0xea6 <main+0x1d6>
     f6a:	29 85       	ldd	r18, Y+9	; 0x09
     f6c:	8f ec       	ldi	r24, 0xCF	; 207
     f6e:	82 0f       	add	r24, r18
     f70:	30 e0       	ldi	r19, 0x00	; 0
     f72:	84 30       	cpi	r24, 0x04	; 4
     f74:	a0 f4       	brcc	.+40     	; 0xf9e <main+0x2ce>
     f76:	86 b3       	in	r24, 0x16	; 22
     f78:	83 70       	andi	r24, 0x03	; 3
     f7a:	44 e3       	ldi	r20, 0x34	; 52
     f7c:	50 e0       	ldi	r21, 0x00	; 0
     f7e:	48 1b       	sub	r20, r24
     f80:	51 09       	sbc	r21, r1
     f82:	89 81       	ldd	r24, Y+1	; 0x01
     f84:	24 17       	cp	r18, r20
     f86:	35 07       	cpc	r19, r21
     f88:	e9 f0       	breq	.+58     	; 0xfc4 <main+0x2f4>
     f8a:	90 e0       	ldi	r25, 0x00	; 0
     f8c:	c0 96       	adiw	r24, 0x30	; 48
     f8e:	28 17       	cp	r18, r24
     f90:	39 07       	cpc	r19, r25
     f92:	b1 f4       	brne	.+44     	; 0xfc0 <main+0x2f0>
     f94:	96 b3       	in	r25, 0x16	; 22
     f96:	93 70       	andi	r25, 0x03	; 3
     f98:	84 e0       	ldi	r24, 0x04	; 4
     f9a:	89 1b       	sub	r24, r25
     f9c:	13 c0       	rjmp	.+38     	; 0xfc4 <main+0x2f4>
     f9e:	46 b3       	in	r20, 0x16	; 22
     fa0:	43 70       	andi	r20, 0x03	; 3
     fa2:	84 e7       	ldi	r24, 0x74	; 116
     fa4:	90 e0       	ldi	r25, 0x00	; 0
     fa6:	84 1b       	sub	r24, r20
     fa8:	91 09       	sbc	r25, r1
     faa:	28 17       	cp	r18, r24
     fac:	39 07       	cpc	r19, r25
     fae:	09 f0       	breq	.+2      	; 0xfb2 <main+0x2e2>
     fb0:	7a cf       	rjmp	.-268    	; 0xea6 <main+0x1d6>
     fb2:	8a 85       	ldd	r24, Y+10	; 0x0a
     fb4:	80 55       	subi	r24, 0x50	; 80
     fb6:	84 30       	cpi	r24, 0x04	; 4
     fb8:	08 f0       	brcs	.+2      	; 0xfbc <main+0x2ec>
     fba:	1d c3       	rjmp	.+1594   	; 0x15f6 <main+0x926>
     fbc:	80 e3       	ldi	r24, 0x30	; 48
     fbe:	89 87       	std	Y+9, r24	; 0x09
     fc0:	89 85       	ldd	r24, Y+9	; 0x09
     fc2:	8f 70       	andi	r24, 0x0F	; 15
     fc4:	78 16       	cp	r7, r24
     fc6:	11 f1       	breq	.+68     	; 0x100c <main+0x33c>
     fc8:	f4 e0       	ldi	r31, 0x04	; 4
     fca:	f7 15       	cp	r31, r7
     fcc:	48 f4       	brcc	.+18     	; 0xfe0 <main+0x310>
     fce:	2f e0       	ldi	r18, 0x0F	; 15
     fd0:	82 9f       	mul	r24, r18
     fd2:	f0 01       	movw	r30, r0
     fd4:	11 24       	eor	r1, r1
     fd6:	e0 5a       	subi	r30, 0xA0	; 160
     fd8:	ff 4f       	sbci	r31, 0xFF	; 255
     fda:	ad ec       	ldi	r26, 0xCD	; 205
     fdc:	b3 e0       	ldi	r27, 0x03	; 3
     fde:	0f c0       	rjmp	.+30     	; 0xffe <main+0x32e>
     fe0:	ad ec       	ldi	r26, 0xCD	; 205
     fe2:	b3 e0       	ldi	r27, 0x03	; 3
     fe4:	3f e0       	ldi	r19, 0x0F	; 15
     fe6:	73 9e       	mul	r7, r19
     fe8:	f0 01       	movw	r30, r0
     fea:	11 24       	eor	r1, r1
     fec:	e0 5a       	subi	r30, 0xA0	; 160
     fee:	ff 4f       	sbci	r31, 0xFF	; 255
     ff0:	9d 91       	ld	r25, X+
     ff2:	91 93       	st	Z+, r25
     ff4:	93 e0       	ldi	r25, 0x03	; 3
     ff6:	ac 3d       	cpi	r26, 0xDC	; 220
     ff8:	b9 07       	cpc	r27, r25
     ffa:	d1 f7       	brne	.-12     	; 0xff0 <main+0x320>
     ffc:	e8 cf       	rjmp	.-48     	; 0xfce <main+0x2fe>
     ffe:	91 91       	ld	r25, Z+
    1000:	9d 93       	st	X+, r25
    1002:	23 e0       	ldi	r18, 0x03	; 3
    1004:	ac 3d       	cpi	r26, 0xDC	; 220
    1006:	b2 07       	cpc	r27, r18
    1008:	d1 f7       	brne	.-12     	; 0xffe <main+0x32e>
    100a:	78 2e       	mov	r7, r24
    100c:	20 91 db 03 	lds	r18, 0x03DB
    1010:	20 ff       	sbrs	r18, 0
    1012:	49 cf       	rjmp	.-366    	; 0xea6 <main+0x1d6>
    1014:	8a 85       	ldd	r24, Y+10	; 0x0a
    1016:	83 35       	cpi	r24, 0x53	; 83
    1018:	09 f4       	brne	.+2      	; 0x101c <main+0x34c>
    101a:	90 c0       	rjmp	.+288    	; 0x113c <main+0x46c>
    101c:	32 2f       	mov	r19, r18
    101e:	3b 7f       	andi	r19, 0xFB	; 251
    1020:	30 93 db 03 	sts	0x03DB, r19
    1024:	82 32       	cpi	r24, 0x22	; 34
    1026:	99 f1       	breq	.+102    	; 0x108e <main+0x3be>
    1028:	18 f4       	brcc	.+6      	; 0x1030 <main+0x360>
    102a:	81 32       	cpi	r24, 0x21	; 33
    102c:	41 f0       	breq	.+16     	; 0x103e <main+0x36e>
    102e:	86 c0       	rjmp	.+268    	; 0x113c <main+0x46c>
    1030:	80 35       	cpi	r24, 0x50	; 80
    1032:	09 f4       	brne	.+2      	; 0x1036 <main+0x366>
    1034:	94 c0       	rjmp	.+296    	; 0x115e <main+0x48e>
    1036:	87 35       	cpi	r24, 0x57	; 87
    1038:	09 f4       	brne	.+2      	; 0x103c <main+0x36c>
    103a:	91 c0       	rjmp	.+290    	; 0x115e <main+0x48e>
    103c:	7f c0       	rjmp	.+254    	; 0x113c <main+0x46c>
    103e:	24 fd       	sbrc	r18, 4
    1040:	05 c0       	rjmp	.+10     	; 0x104c <main+0x37c>
    1042:	80 e1       	ldi	r24, 0x10	; 16
    1044:	98 e6       	ldi	r25, 0x68	; 104
    1046:	a1 e0       	ldi	r26, 0x01	; 1
    1048:	b0 e0       	ldi	r27, 0x00	; 0
    104a:	04 c0       	rjmp	.+8      	; 0x1054 <main+0x384>
    104c:	80 e0       	ldi	r24, 0x00	; 0
    104e:	98 e6       	ldi	r25, 0x68	; 104
    1050:	a1 e0       	ldi	r26, 0x01	; 1
    1052:	b0 e0       	ldi	r27, 0x00	; 0
    1054:	40 91 cc 03 	lds	r20, 0x03CC
    1058:	43 30       	cpi	r20, 0x03	; 3
    105a:	21 f4       	brne	.+8      	; 0x1064 <main+0x394>
    105c:	34 60       	ori	r19, 0x04	; 4
    105e:	30 93 db 03 	sts	0x03DB, r19
    1062:	7b c0       	rjmp	.+246    	; 0x115a <main+0x48a>
    1064:	41 11       	cpse	r20, r1
    1066:	0e c0       	rjmp	.+28     	; 0x1084 <main+0x3b4>
    1068:	40 91 d7 03 	lds	r20, 0x03D7
    106c:	50 91 d8 03 	lds	r21, 0x03D8
    1070:	60 91 d9 03 	lds	r22, 0x03D9
    1074:	70 91 da 03 	lds	r23, 0x03DA
    1078:	48 17       	cp	r20, r24
    107a:	59 07       	cpc	r21, r25
    107c:	6a 07       	cpc	r22, r26
    107e:	7b 07       	cpc	r23, r27
    1080:	69 f7       	brne	.-38     	; 0x105c <main+0x38c>
    1082:	07 c0       	rjmp	.+14     	; 0x1092 <main+0x3c2>
    1084:	42 30       	cpi	r20, 0x02	; 2
    1086:	29 f4       	brne	.+10     	; 0x1092 <main+0x3c2>
    1088:	00 e0       	ldi	r16, 0x00	; 0
    108a:	11 e0       	ldi	r17, 0x01	; 1
    108c:	04 c0       	rjmp	.+8      	; 0x1096 <main+0x3c6>
    108e:	37 ff       	sbrs	r19, 7
    1090:	e5 cf       	rjmp	.-54     	; 0x105c <main+0x38c>
    1092:	00 e8       	ldi	r16, 0x80	; 128
    1094:	10 e0       	ldi	r17, 0x00	; 0
    1096:	10 92 cc 03 	sts	0x03CC, r1
    109a:	26 fd       	sbrc	r18, 6
    109c:	df cf       	rjmp	.-66     	; 0x105c <main+0x38c>
    109e:	81 e4       	ldi	r24, 0x41	; 65
    10a0:	31 d8       	rcall	.-3998   	; 0x104 <USART_Transmit_Byte>
    10a2:	64 da       	rcall	.-2872   	; 0x56c <Clear_atari_sector_buffer_256>
    10a4:	80 91 db 03 	lds	r24, 0x03DB
    10a8:	84 ff       	sbrs	r24, 4
    10aa:	04 c0       	rjmp	.+8      	; 0x10b4 <main+0x3e4>
    10ac:	81 2c       	mov	r8, r1
    10ae:	91 2c       	mov	r9, r1
    10b0:	54 01       	movw	r10, r8
    10b2:	1d c0       	rjmp	.+58     	; 0x10ee <main+0x41e>
    10b4:	20 e1       	ldi	r18, 0x10	; 16
    10b6:	82 2e       	mov	r8, r18
    10b8:	91 2c       	mov	r9, r1
    10ba:	a1 2c       	mov	r10, r1
    10bc:	b1 2c       	mov	r11, r1
    10be:	17 c0       	rjmp	.+46     	; 0x10ee <main+0x41e>
    10c0:	1c 01       	movw	r2, r24
    10c2:	2d 01       	movw	r4, r26
    10c4:	81 30       	cpi	r24, 0x01	; 1
    10c6:	31 e0       	ldi	r19, 0x01	; 1
    10c8:	93 07       	cpc	r25, r19
    10ca:	a1 05       	cpc	r26, r1
    10cc:	b1 05       	cpc	r27, r1
    10ce:	20 f0       	brcs	.+8      	; 0x10d8 <main+0x408>
    10d0:	21 2c       	mov	r2, r1
    10d2:	31 2c       	mov	r3, r1
    10d4:	21 01       	movw	r4, r2
    10d6:	33 94       	inc	r3
    10d8:	91 01       	movw	r18, r2
    10da:	b5 01       	movw	r22, r10
    10dc:	a4 01       	movw	r20, r8
    10de:	81 e0       	ldi	r24, 0x01	; 1
    10e0:	06 d9       	rcall	.-3572   	; 0x2ee <faccess_offset>
    10e2:	89 2b       	or	r24, r25
    10e4:	99 f0       	breq	.+38     	; 0x110c <main+0x43c>
    10e6:	82 0c       	add	r8, r2
    10e8:	93 1c       	adc	r9, r3
    10ea:	a4 1c       	adc	r10, r4
    10ec:	b5 1c       	adc	r11, r5
    10ee:	80 91 d7 03 	lds	r24, 0x03D7
    10f2:	90 91 d8 03 	lds	r25, 0x03D8
    10f6:	a0 91 d9 03 	lds	r26, 0x03D9
    10fa:	b0 91 da 03 	lds	r27, 0x03DA
    10fe:	88 19       	sub	r24, r8
    1100:	99 09       	sbc	r25, r9
    1102:	aa 09       	sbc	r26, r10
    1104:	bb 09       	sbc	r27, r11
    1106:	e1 f6       	brne	.-72     	; 0x10c0 <main+0x3f0>
    1108:	20 e0       	ldi	r18, 0x00	; 0
    110a:	01 c0       	rjmp	.+2      	; 0x110e <main+0x43e>
    110c:	21 e0       	ldi	r18, 0x01	; 1
    110e:	e6 ec       	ldi	r30, 0xC6	; 198
    1110:	f2 e0       	ldi	r31, 0x02	; 2
    1112:	c8 01       	movw	r24, r16
    1114:	8a 53       	subi	r24, 0x3A	; 58
    1116:	9d 4f       	sbci	r25, 0xFD	; 253
    1118:	3f ef       	ldi	r19, 0xFF	; 255
    111a:	31 93       	st	Z+, r19
    111c:	e8 17       	cp	r30, r24
    111e:	f9 07       	cpc	r31, r25
    1120:	e1 f7       	brne	.-8      	; 0x111a <main+0x44a>
    1122:	22 23       	and	r18, r18
    1124:	49 f0       	breq	.+18     	; 0x1138 <main+0x468>
    1126:	10 92 c6 02 	sts	0x02C6, r1
    112a:	10 92 c7 02 	sts	0x02C7, r1
    112e:	80 91 db 03 	lds	r24, 0x03DB
    1132:	84 60       	ori	r24, 0x04	; 4
    1134:	80 93 db 03 	sts	0x03DB, r24
    1138:	c8 01       	movw	r24, r16
    113a:	73 c0       	rjmp	.+230    	; 0x1222 <main+0x552>
    113c:	ad 98       	cbi	0x15, 5	; 21
    113e:	8a 85       	ldd	r24, Y+10	; 0x0a
    1140:	9e ea       	ldi	r25, 0xAE	; 174
    1142:	98 0f       	add	r25, r24
    1144:	92 30       	cpi	r25, 0x02	; 2
    1146:	58 f0       	brcs	.+22     	; 0x115e <main+0x48e>
    1148:	92 eb       	ldi	r25, 0xB2	; 178
    114a:	98 0f       	add	r25, r24
    114c:	92 30       	cpi	r25, 0x02	; 2
    114e:	38 f0       	brcs	.+14     	; 0x115e <main+0x48e>
    1150:	8f 33       	cpi	r24, 0x3F	; 63
    1152:	19 f4       	brne	.+6      	; 0x115a <main+0x48a>
    1154:	8b 81       	ldd	r24, Y+3	; 0x03
    1156:	88 32       	cpi	r24, 0x28	; 40
    1158:	11 f4       	brne	.+4      	; 0x115e <main+0x48e>
    115a:	8e e4       	ldi	r24, 0x4E	; 78
    115c:	22 c6       	rjmp	.+3140   	; 0x1da2 <main+0x10d2>
    115e:	81 e4       	ldi	r24, 0x41	; 65
    1160:	d1 d7       	rcall	.+4002   	; 0x2104 <_etext+0x27c>
    1162:	ea 85       	ldd	r30, Y+10	; 0x0a
    1164:	e0 35       	cpi	r30, 0x50	; 80
    1166:	09 f4       	brne	.+2      	; 0x116a <main+0x49a>
    1168:	f4 c0       	rjmp	.+488    	; 0x1352 <main+0x682>
    116a:	68 f4       	brcc	.+26     	; 0x1186 <main+0x4b6>
    116c:	ee 34       	cpi	r30, 0x4E	; 78
    116e:	a9 f0       	breq	.+42     	; 0x119a <main+0x4ca>
    1170:	08 f0       	brcs	.+2      	; 0x1174 <main+0x4a4>
    1172:	9a c0       	rjmp	.+308    	; 0x12a8 <main+0x5d8>
    1174:	ef 33       	cpi	r30, 0x3F	; 63
    1176:	09 f0       	breq	.+2      	; 0x117a <main+0x4aa>
    1178:	96 ce       	rjmp	.-724    	; 0xea6 <main+0x1d6>
    117a:	8b 81       	ldd	r24, Y+3	; 0x03
    117c:	80 93 c6 02 	sts	0x02C6, r24
    1180:	81 e0       	ldi	r24, 0x01	; 1
    1182:	90 e0       	ldi	r25, 0x00	; 0
    1184:	4e c0       	rjmp	.+156    	; 0x1222 <main+0x552>
    1186:	e3 35       	cpi	r30, 0x53	; 83
    1188:	09 f4       	brne	.+2      	; 0x118c <main+0x4bc>
    118a:	06 c2       	rjmp	.+1036   	; 0x1598 <main+0x8c8>
    118c:	e7 35       	cpi	r30, 0x57	; 87
    118e:	09 f4       	brne	.+2      	; 0x1192 <main+0x4c2>
    1190:	e0 c0       	rjmp	.+448    	; 0x1352 <main+0x682>
    1192:	e2 35       	cpi	r30, 0x52	; 82
    1194:	09 f0       	breq	.+2      	; 0x1198 <main+0x4c8>
    1196:	87 ce       	rjmp	.-754    	; 0xea6 <main+0x1d6>
    1198:	dc c0       	rjmp	.+440    	; 0x1352 <main+0x682>
    119a:	80 91 db 03 	lds	r24, 0x03DB
    119e:	28 2f       	mov	r18, r24
    11a0:	20 74       	andi	r18, 0x40	; 64
    11a2:	2e 87       	std	Y+14, r18	; 0x0e
    11a4:	20 90 d7 03 	lds	r2, 0x03D7
    11a8:	30 90 d8 03 	lds	r3, 0x03D8
    11ac:	40 90 d9 03 	lds	r4, 0x03D9
    11b0:	50 90 da 03 	lds	r5, 0x03DA
    11b4:	38 2f       	mov	r19, r24
    11b6:	30 72       	andi	r19, 0x20	; 32
    11b8:	39 8b       	std	Y+17, r19	; 0x11
    11ba:	85 ff       	sbrs	r24, 5
    11bc:	34 c0       	rjmp	.+104    	; 0x1226 <main+0x556>
    11be:	00 e0       	ldi	r16, 0x00	; 0
    11c0:	11 e0       	ldi	r17, 0x01	; 1
    11c2:	61 2f       	mov	r22, r17
    11c4:	77 27       	eor	r23, r23
    11c6:	61 2c       	mov	r6, r1
    11c8:	80 e0       	ldi	r24, 0x00	; 0
    11ca:	90 e0       	ldi	r25, 0x00	; 0
    11cc:	52 01       	movw	r10, r4
    11ce:	41 01       	movw	r8, r2
    11d0:	e0 e8       	ldi	r30, 0x80	; 128
    11d2:	8e 22       	and	r8, r30
    11d4:	fb e0       	ldi	r31, 0x0B	; 11
    11d6:	f6 15       	cp	r31, r6
    11d8:	70 f5       	brcc	.+92     	; 0x1236 <main+0x566>
    11da:	2e 85       	ldd	r18, Y+14	; 0x0e
    11dc:	21 11       	cpse	r18, r1
    11de:	26 c0       	rjmp	.+76     	; 0x122c <main+0x55c>
    11e0:	20 91 ce 02 	lds	r18, 0x02CE
    11e4:	30 91 cf 02 	lds	r19, 0x02CF
    11e8:	40 91 d0 02 	lds	r20, 0x02D0
    11ec:	50 91 d1 02 	lds	r21, 0x02D1
    11f0:	28 15       	cp	r18, r8
    11f2:	39 05       	cpc	r19, r9
    11f4:	4a 05       	cpc	r20, r10
    11f6:	5b 05       	cpc	r21, r11
    11f8:	c9 f4       	brne	.+50     	; 0x122c <main+0x55c>
    11fa:	20 91 cc 02 	lds	r18, 0x02CC
    11fe:	30 e0       	ldi	r19, 0x00	; 0
    1200:	26 17       	cp	r18, r22
    1202:	37 07       	cpc	r19, r23
    1204:	99 f4       	brne	.+38     	; 0x122c <main+0x55c>
    1206:	81 e0       	ldi	r24, 0x01	; 1
    1208:	80 93 ce 02 	sts	0x02CE, r24
    120c:	83 e5       	ldi	r24, 0x53	; 83
    120e:	80 93 cf 02 	sts	0x02CF, r24
    1212:	84 e4       	ldi	r24, 0x44	; 68
    1214:	80 93 d0 02 	sts	0x02D0, r24
    1218:	82 e7       	ldi	r24, 0x72	; 114
    121a:	80 93 d1 02 	sts	0x02D1, r24
    121e:	8c e0       	ldi	r24, 0x0C	; 12
    1220:	90 e0       	ldi	r25, 0x00	; 0
    1222:	c8 d7       	rcall	.+3984   	; 0x21b4 <_etext+0x32c>
    1224:	40 ce       	rjmp	.-896    	; 0xea6 <main+0x1d6>
    1226:	00 e8       	ldi	r16, 0x80	; 128
    1228:	10 e0       	ldi	r17, 0x00	; 0
    122a:	cb cf       	rjmp	.-106    	; 0x11c2 <main+0x4f2>
    122c:	20 91 c6 02 	lds	r18, 0x02C6
    1230:	21 30       	cpi	r18, 0x01	; 1
    1232:	a9 f0       	breq	.+42     	; 0x125e <main+0x58e>
    1234:	61 2c       	mov	r6, r1
    1236:	9c 01       	movw	r18, r24
    1238:	2f 5f       	subi	r18, 0xFF	; 255
    123a:	3f 4f       	sbci	r19, 0xFF	; 255
    123c:	2d 8b       	std	Y+21, r18	; 0x15
    123e:	3c 8b       	std	Y+20, r19	; 0x14
    1240:	6a 8b       	std	Y+18, r22	; 0x12
    1242:	7b 8b       	std	Y+19, r23	; 0x13
    1244:	17 d6       	rcall	.+3118   	; 0x1e74 <__eerd_byte_m8>
    1246:	e6 2d       	mov	r30, r6
    1248:	f0 e0       	ldi	r31, 0x00	; 0
    124a:	ea 53       	subi	r30, 0x3A	; 58
    124c:	fd 4f       	sbci	r31, 0xFD	; 253
    124e:	80 83       	st	Z, r24
    1250:	63 94       	inc	r6
    1252:	2d 89       	ldd	r18, Y+21	; 0x15
    1254:	3c 89       	ldd	r19, Y+20	; 0x14
    1256:	c9 01       	movw	r24, r18
    1258:	6a 89       	ldd	r22, Y+18	; 0x12
    125a:	7b 89       	ldd	r23, Y+19	; 0x13
    125c:	bb cf       	rjmp	.-138    	; 0x11d4 <main+0x504>
    125e:	60 93 cc 02 	sts	0x02CC, r22
    1262:	00 93 cd 02 	sts	0x02CD, r16
    1266:	3e 85       	ldd	r19, Y+14	; 0x0e
    1268:	33 23       	and	r19, r19
    126a:	41 f0       	breq	.+16     	; 0x127c <main+0x5ac>
    126c:	8d e2       	ldi	r24, 0x2D	; 45
    126e:	28 0e       	add	r2, r24
    1270:	84 eb       	ldi	r24, 0xB4	; 180
    1272:	38 1e       	adc	r3, r24
    1274:	41 1c       	adc	r4, r1
    1276:	51 1c       	adc	r5, r1
    1278:	0d e7       	ldi	r16, 0x7D	; 125
    127a:	10 e0       	ldi	r17, 0x00	; 0
    127c:	29 89       	ldd	r18, Y+17	; 0x11
    127e:	22 23       	and	r18, r18
    1280:	31 f0       	breq	.+12     	; 0x128e <main+0x5be>
    1282:	30 e8       	ldi	r19, 0x80	; 128
    1284:	23 0e       	add	r2, r19
    1286:	31 e0       	ldi	r19, 0x01	; 1
    1288:	33 1e       	adc	r3, r19
    128a:	41 1c       	adc	r4, r1
    128c:	51 1c       	adc	r5, r1
    128e:	98 01       	movw	r18, r16
    1290:	40 e0       	ldi	r20, 0x00	; 0
    1292:	50 e0       	ldi	r21, 0x00	; 0
    1294:	c2 01       	movw	r24, r4
    1296:	b1 01       	movw	r22, r2
    1298:	cb d5       	rcall	.+2966   	; 0x1e30 <__udivmodsi4>
    129a:	30 93 c8 02 	sts	0x02C8, r19
    129e:	20 93 c9 02 	sts	0x02C9, r18
    12a2:	40 93 ca 02 	sts	0x02CA, r20
    12a6:	af cf       	rjmp	.-162    	; 0x1206 <main+0x536>
    12a8:	6c e0       	ldi	r22, 0x0C	; 12
    12aa:	70 e0       	ldi	r23, 0x00	; 0
    12ac:	86 ec       	ldi	r24, 0xC6	; 198
    12ae:	92 e0       	ldi	r25, 0x02	; 2
    12b0:	6a d7       	rcall	.+3796   	; 0x2186 <_etext+0x2fe>
    12b2:	81 11       	cpse	r24, r1
    12b4:	f8 cd       	rjmp	.-1040   	; 0xea6 <main+0x1d6>
    12b6:	e0 91 cc 02 	lds	r30, 0x02CC
    12ba:	f0 91 cd 02 	lds	r31, 0x02CD
    12be:	20 91 ca 02 	lds	r18, 0x02CA
    12c2:	30 e0       	ldi	r19, 0x00	; 0
    12c4:	40 e0       	ldi	r20, 0x00	; 0
    12c6:	50 e0       	ldi	r21, 0x00	; 0
    12c8:	2f 5f       	subi	r18, 0xFF	; 255
    12ca:	3f 4f       	sbci	r19, 0xFF	; 255
    12cc:	4f 4f       	sbci	r20, 0xFF	; 255
    12ce:	5f 4f       	sbci	r21, 0xFF	; 255
    12d0:	a0 91 c6 02 	lds	r26, 0x02C6
    12d4:	b0 e0       	ldi	r27, 0x00	; 0
    12d6:	73 d5       	rcall	.+2790   	; 0x1dbe <__muluhisi3>
    12d8:	9b 01       	movw	r18, r22
    12da:	ac 01       	movw	r20, r24
    12dc:	a0 91 c8 02 	lds	r26, 0x02C8
    12e0:	b0 e0       	ldi	r27, 0x00	; 0
    12e2:	ba 2f       	mov	r27, r26
    12e4:	aa 27       	eor	r26, r26
    12e6:	80 91 c9 02 	lds	r24, 0x02C9
    12ea:	a8 0f       	add	r26, r24
    12ec:	b1 1d       	adc	r27, r1
    12ee:	67 d5       	rcall	.+2766   	; 0x1dbe <__muluhisi3>
    12f0:	9b 01       	movw	r18, r22
    12f2:	ac 01       	movw	r20, r24
    12f4:	ae 2f       	mov	r26, r30
    12f6:	b0 e0       	ldi	r27, 0x00	; 0
    12f8:	ba 2f       	mov	r27, r26
    12fa:	aa 27       	eor	r26, r26
    12fc:	af 0f       	add	r26, r31
    12fe:	b1 1d       	adc	r27, r1
    1300:	5e d5       	rcall	.+2748   	; 0x1dbe <__muluhisi3>
    1302:	20 91 db 03 	lds	r18, 0x03DB
    1306:	24 fd       	sbrc	r18, 4
    1308:	04 c0       	rjmp	.+8      	; 0x1312 <main+0x642>
    130a:	60 5f       	subi	r22, 0xF0	; 240
    130c:	7f 4f       	sbci	r23, 0xFF	; 255
    130e:	8f 4f       	sbci	r24, 0xFF	; 255
    1310:	9f 4f       	sbci	r25, 0xFF	; 255
    1312:	25 ff       	sbrs	r18, 5
    1314:	04 c0       	rjmp	.+8      	; 0x131e <main+0x64e>
    1316:	60 58       	subi	r22, 0x80	; 128
    1318:	71 40       	sbci	r23, 0x01	; 1
    131a:	81 09       	sbc	r24, r1
    131c:	91 09       	sbc	r25, r1
    131e:	00 91 d7 03 	lds	r16, 0x03D7
    1322:	10 91 d8 03 	lds	r17, 0x03D8
    1326:	20 91 d9 03 	lds	r18, 0x03D9
    132a:	30 91 da 03 	lds	r19, 0x03DA
    132e:	60 17       	cp	r22, r16
    1330:	71 07       	cpc	r23, r17
    1332:	82 07       	cpc	r24, r18
    1334:	93 07       	cpc	r25, r19
    1336:	11 f0       	breq	.+4      	; 0x133c <main+0x66c>
    1338:	83 e0       	ldi	r24, 0x03	; 3
    133a:	08 c0       	rjmp	.+16     	; 0x134c <main+0x67c>
    133c:	81 e0       	ldi	r24, 0x01	; 1
    133e:	80 93 cc 03 	sts	0x03CC, r24
    1342:	ef 2b       	or	r30, r31
    1344:	e1 30       	cpi	r30, 0x01	; 1
    1346:	09 f0       	breq	.+2      	; 0x134a <main+0x67a>
    1348:	25 c5       	rjmp	.+2634   	; 0x1d94 <main+0x10c4>
    134a:	82 e0       	ldi	r24, 0x02	; 2
    134c:	80 93 cc 03 	sts	0x03CC, r24
    1350:	21 c5       	rjmp	.+2626   	; 0x1d94 <main+0x10c4>
    1352:	10 92 cc 03 	sts	0x03CC, r1
    1356:	0b 85       	ldd	r16, Y+11	; 0x0b
    1358:	1c 85       	ldd	r17, Y+12	; 0x0c
    135a:	01 15       	cp	r16, r1
    135c:	11 05       	cpc	r17, r1
    135e:	09 f4       	brne	.+2      	; 0x1362 <main+0x692>
    1360:	1e c5       	rjmp	.+2620   	; 0x1d9e <main+0x10ce>
    1362:	f0 91 db 03 	lds	r31, 0x03DB
    1366:	f6 fd       	sbrc	r31, 6
    1368:	4f c0       	rjmp	.+158    	; 0x1408 <main+0x738>
    136a:	04 30       	cpi	r16, 0x04	; 4
    136c:	11 05       	cpc	r17, r1
    136e:	78 f4       	brcc	.+30     	; 0x138e <main+0x6be>
    1370:	18 01       	movw	r2, r16
    1372:	81 e0       	ldi	r24, 0x01	; 1
    1374:	28 1a       	sub	r2, r24
    1376:	31 08       	sbc	r3, r1
    1378:	36 94       	lsr	r3
    137a:	32 2c       	mov	r3, r2
    137c:	22 24       	eor	r2, r2
    137e:	37 94       	ror	r3
    1380:	27 94       	ror	r2
    1382:	41 2c       	mov	r4, r1
    1384:	51 2c       	mov	r5, r1
    1386:	70 e8       	ldi	r23, 0x80	; 128
    1388:	a7 2e       	mov	r10, r23
    138a:	b1 2c       	mov	r11, r1
    138c:	1a c0       	rjmp	.+52     	; 0x13c2 <main+0x6f2>
    138e:	f5 ff       	sbrs	r31, 5
    1390:	04 c0       	rjmp	.+8      	; 0x139a <main+0x6ca>
    1392:	a1 2c       	mov	r10, r1
    1394:	bb 24       	eor	r11, r11
    1396:	b3 94       	inc	r11
    1398:	03 c0       	rjmp	.+6      	; 0x13a0 <main+0x6d0>
    139a:	40 e8       	ldi	r20, 0x80	; 128
    139c:	a4 2e       	mov	r10, r20
    139e:	b1 2c       	mov	r11, r1
    13a0:	98 01       	movw	r18, r16
    13a2:	40 e0       	ldi	r20, 0x00	; 0
    13a4:	50 e0       	ldi	r21, 0x00	; 0
    13a6:	24 50       	subi	r18, 0x04	; 4
    13a8:	31 09       	sbc	r19, r1
    13aa:	41 09       	sbc	r20, r1
    13ac:	51 09       	sbc	r21, r1
    13ae:	d5 01       	movw	r26, r10
    13b0:	06 d5       	rcall	.+2572   	; 0x1dbe <__muluhisi3>
    13b2:	1b 01       	movw	r2, r22
    13b4:	2c 01       	movw	r4, r24
    13b6:	90 e8       	ldi	r25, 0x80	; 128
    13b8:	29 0e       	add	r2, r25
    13ba:	91 e0       	ldi	r25, 0x01	; 1
    13bc:	39 1e       	adc	r3, r25
    13be:	41 1c       	adc	r4, r1
    13c0:	51 1c       	adc	r5, r1
    13c2:	f4 fd       	sbrc	r31, 4
    13c4:	05 c0       	rjmp	.+10     	; 0x13d0 <main+0x700>
    13c6:	f0 e1       	ldi	r31, 0x10	; 16
    13c8:	2f 0e       	add	r2, r31
    13ca:	31 1c       	adc	r3, r1
    13cc:	41 1c       	adc	r4, r1
    13ce:	51 1c       	adc	r5, r1
    13d0:	e2 35       	cpi	r30, 0x52	; 82
    13d2:	49 f4       	brne	.+18     	; 0x13e6 <main+0x716>
    13d4:	95 01       	movw	r18, r10
    13d6:	b2 01       	movw	r22, r4
    13d8:	a1 01       	movw	r20, r2
    13da:	80 e0       	ldi	r24, 0x00	; 0
    13dc:	88 d7       	rcall	.+3856   	; 0x22ee <_etext+0x466>
    13de:	89 2b       	or	r24, r25
    13e0:	09 f4       	brne	.+2      	; 0x13e4 <main+0x714>
    13e2:	dd c4       	rjmp	.+2490   	; 0x1d9e <main+0x10ce>
    13e4:	d7 c0       	rjmp	.+430    	; 0x1594 <main+0x8c4>
    13e6:	b5 01       	movw	r22, r10
    13e8:	86 ec       	ldi	r24, 0xC6	; 198
    13ea:	92 e0       	ldi	r25, 0x02	; 2
    13ec:	cc d6       	rcall	.+3480   	; 0x2186 <_etext+0x2fe>
    13ee:	81 11       	cpse	r24, r1
    13f0:	5a cd       	rjmp	.-1356   	; 0xea6 <main+0x1d6>
    13f2:	83 99       	sbic	0x10, 3	; 16
    13f4:	d4 c4       	rjmp	.+2472   	; 0x1d9e <main+0x10ce>
    13f6:	95 01       	movw	r18, r10
    13f8:	b2 01       	movw	r22, r4
    13fa:	a1 01       	movw	r20, r2
    13fc:	81 e0       	ldi	r24, 0x01	; 1
    13fe:	77 d7       	rcall	.+3822   	; 0x22ee <_etext+0x466>
    1400:	89 2b       	or	r24, r25
    1402:	09 f4       	brne	.+2      	; 0x1406 <main+0x736>
    1404:	cc c4       	rjmp	.+2456   	; 0x1d9e <main+0x10ce>
    1406:	c6 c4       	rjmp	.+2444   	; 0x1d94 <main+0x10c4>
    1408:	e2 35       	cpi	r30, 0x52	; 82
    140a:	41 f0       	breq	.+16     	; 0x141c <main+0x74c>
    140c:	60 e8       	ldi	r22, 0x80	; 128
    140e:	70 e0       	ldi	r23, 0x00	; 0
    1410:	86 ec       	ldi	r24, 0xC6	; 198
    1412:	92 e0       	ldi	r25, 0x02	; 2
    1414:	b8 d6       	rcall	.+3440   	; 0x2186 <_etext+0x2fe>
    1416:	81 11       	cpse	r24, r1
    1418:	46 cd       	rjmp	.-1396   	; 0xea6 <main+0x1d6>
    141a:	c1 c4       	rjmp	.+2434   	; 0x1d9e <main+0x10ce>
    141c:	80 e8       	ldi	r24, 0x80	; 128
    141e:	90 e0       	ldi	r25, 0x00	; 0
    1420:	9c d8       	rcall	.-3784   	; 0x55a <Clear_atari_sector_buffer>
    1422:	03 30       	cpi	r16, 0x03	; 3
    1424:	11 05       	cpc	r17, r1
    1426:	a8 f0       	brcs	.+42     	; 0x1452 <main+0x782>
    1428:	60 91 d7 03 	lds	r22, 0x03D7
    142c:	70 91 d8 03 	lds	r23, 0x03D8
    1430:	80 91 d9 03 	lds	r24, 0x03D9
    1434:	90 91 da 03 	lds	r25, 0x03DA
    1438:	64 58       	subi	r22, 0x84	; 132
    143a:	7f 4f       	sbci	r23, 0xFF	; 255
    143c:	8f 4f       	sbci	r24, 0xFF	; 255
    143e:	9f 4f       	sbci	r25, 0xFF	; 255
    1440:	a7 01       	movw	r20, r14
    1442:	96 01       	movw	r18, r12
    1444:	f5 d4       	rcall	.+2538   	; 0x1e30 <__udivmodsi4>
    1446:	59 01       	movw	r10, r18
    1448:	08 36       	cpi	r16, 0x68	; 104
    144a:	81 e0       	ldi	r24, 0x01	; 1
    144c:	18 07       	cpc	r17, r24
    144e:	19 f5       	brne	.+70     	; 0x1496 <main+0x7c6>
    1450:	79 c0       	rjmp	.+242    	; 0x1544 <main+0x874>
    1452:	c8 01       	movw	r24, r16
    1454:	96 95       	lsr	r25
    1456:	98 2f       	mov	r25, r24
    1458:	88 27       	eor	r24, r24
    145a:	97 95       	ror	r25
    145c:	87 95       	ror	r24
    145e:	8a 5e       	subi	r24, 0xEA	; 234
    1460:	9f 4f       	sbci	r25, 0xFF	; 255
    1462:	2c 81       	ldd	r18, Y+4	; 0x04
    1464:	29 5f       	subi	r18, 0xF9	; 249
    1466:	36 ec       	ldi	r19, 0xC6	; 198
    1468:	a3 2e       	mov	r10, r19
    146a:	32 e0       	ldi	r19, 0x02	; 2
    146c:	b3 2e       	mov	r11, r19
    146e:	4c 01       	movw	r8, r24
    1470:	ef ef       	ldi	r30, 0xFF	; 255
    1472:	8e 1a       	sub	r8, r30
    1474:	9e 0a       	sbc	r9, r30
    1476:	2d 8b       	std	Y+21, r18	; 0x15
    1478:	fd d4       	rcall	.+2554   	; 0x1e74 <__eerd_byte_m8>
    147a:	2d 89       	ldd	r18, Y+21	; 0x15
    147c:	87 30       	cpi	r24, 0x07	; 7
    147e:	09 f4       	brne	.+2      	; 0x1482 <main+0x7b2>
    1480:	82 2f       	mov	r24, r18
    1482:	f5 01       	movw	r30, r10
    1484:	81 93       	st	Z+, r24
    1486:	5f 01       	movw	r10, r30
    1488:	f6 e4       	ldi	r31, 0x46	; 70
    148a:	af 16       	cp	r10, r31
    148c:	f3 e0       	ldi	r31, 0x03	; 3
    148e:	bf 06       	cpc	r11, r31
    1490:	59 f2       	breq	.-106    	; 0x1428 <main+0x758>
    1492:	c4 01       	movw	r24, r8
    1494:	ec cf       	rjmp	.-40     	; 0x146e <main+0x79e>
    1496:	09 36       	cpi	r16, 0x69	; 105
    1498:	81 e0       	ldi	r24, 0x01	; 1
    149a:	18 07       	cpc	r17, r24
    149c:	09 f0       	breq	.+2      	; 0x14a0 <main+0x7d0>
    149e:	57 c0       	rjmp	.+174    	; 0x154e <main+0x87e>
    14a0:	60 e0       	ldi	r22, 0x00	; 0
    14a2:	80 91 d5 03 	lds	r24, 0x03D5
    14a6:	90 91 d6 03 	lds	r25, 0x03D6
    14aa:	2d 8b       	std	Y+21, r18	; 0x15
    14ac:	3c 8b       	std	Y+20, r19	; 0x14
    14ae:	4a 8b       	std	Y+18, r20	; 0x12
    14b0:	5b 8b       	std	Y+19, r21	; 0x13
    14b2:	39 da       	rcall	.-2958   	; 0x926 <fatGetDirEntry>
    14b4:	a6 ec       	ldi	r26, 0xC6	; 198
    14b6:	b2 e0       	ldi	r27, 0x02	; 2
    14b8:	80 e0       	ldi	r24, 0x00	; 0
    14ba:	90 e0       	ldi	r25, 0x00	; 0
    14bc:	60 e2       	ldi	r22, 0x20	; 32
    14be:	3c 89       	ldd	r19, Y+20	; 0x14
    14c0:	2d 89       	ldd	r18, Y+21	; 0x15
    14c2:	7d 91       	ld	r23, X+
    14c4:	ef eb       	ldi	r30, 0xBF	; 191
    14c6:	e7 0f       	add	r30, r23
    14c8:	ea 31       	cpi	r30, 0x1A	; 26
    14ca:	20 f0       	brcs	.+8      	; 0x14d4 <main+0x804>
    14cc:	e0 ed       	ldi	r30, 0xD0	; 208
    14ce:	e7 0f       	add	r30, r23
    14d0:	ea 30       	cpi	r30, 0x0A	; 10
    14d2:	30 f4       	brcc	.+12     	; 0x14e0 <main+0x810>
    14d4:	e8 2f       	mov	r30, r24
    14d6:	f0 e0       	ldi	r31, 0x00	; 0
    14d8:	ea 53       	subi	r30, 0x3A	; 58
    14da:	fd 4f       	sbci	r31, 0xFD	; 253
    14dc:	70 83       	st	Z, r23
    14de:	8f 5f       	subi	r24, 0xFF	; 255
    14e0:	97 30       	cpi	r25, 0x07	; 7
    14e2:	11 f0       	breq	.+4      	; 0x14e8 <main+0x818>
    14e4:	9a 30       	cpi	r25, 0x0A	; 10
    14e6:	49 f4       	brne	.+18     	; 0x14fa <main+0x82a>
    14e8:	98 17       	cp	r25, r24
    14ea:	38 f0       	brcs	.+14     	; 0x14fa <main+0x82a>
    14ec:	e8 2f       	mov	r30, r24
    14ee:	f0 e0       	ldi	r31, 0x00	; 0
    14f0:	ea 53       	subi	r30, 0x3A	; 58
    14f2:	fd 4f       	sbci	r31, 0xFD	; 253
    14f4:	60 83       	st	Z, r22
    14f6:	8f 5f       	subi	r24, 0xFF	; 255
    14f8:	f7 cf       	rjmp	.-18     	; 0x14e8 <main+0x818>
    14fa:	9f 5f       	subi	r25, 0xFF	; 255
    14fc:	9b 30       	cpi	r25, 0x0B	; 11
    14fe:	09 f7       	brne	.-62     	; 0x14c2 <main+0x7f2>
    1500:	e1 ed       	ldi	r30, 0xD1	; 209
    1502:	f2 e0       	ldi	r31, 0x02	; 2
    1504:	a6 ed       	ldi	r26, 0xD6	; 214
    1506:	b2 e0       	ldi	r27, 0x02	; 2
    1508:	82 91       	ld	r24, -Z
    150a:	8e 93       	st	-X, r24
    150c:	92 e0       	ldi	r25, 0x02	; 2
    150e:	e6 3c       	cpi	r30, 0xC6	; 198
    1510:	f9 07       	cpc	r31, r25
    1512:	d1 f7       	brne	.-12     	; 0x1508 <main+0x838>
    1514:	e6 ed       	ldi	r30, 0xD6	; 214
    1516:	f2 e0       	ldi	r31, 0x02	; 2
    1518:	83 e0       	ldi	r24, 0x03	; 3
    151a:	e6 34       	cpi	r30, 0x46	; 70
    151c:	f8 07       	cpc	r31, r24
    151e:	11 f0       	breq	.+4      	; 0x1524 <main+0x854>
    1520:	11 92       	st	Z+, r1
    1522:	fa cf       	rjmp	.-12     	; 0x1518 <main+0x848>
    1524:	90 e9       	ldi	r25, 0x90	; 144
    1526:	a9 16       	cp	r10, r25
    1528:	92 e0       	ldi	r25, 0x02	; 2
    152a:	b9 06       	cpc	r11, r25
    152c:	10 f0       	brcs	.+4      	; 0x1532 <main+0x862>
    152e:	86 e4       	ldi	r24, 0x46	; 70
    1530:	01 c0       	rjmp	.+2      	; 0x1534 <main+0x864>
    1532:	82 e4       	ldi	r24, 0x42	; 66
    1534:	80 93 c6 02 	sts	0x02C6, r24
    1538:	81 e7       	ldi	r24, 0x71	; 113
    153a:	91 e0       	ldi	r25, 0x01	; 1
    153c:	90 93 ca 02 	sts	0x02CA, r25
    1540:	80 93 c9 02 	sts	0x02C9, r24
    1544:	30 93 c8 02 	sts	0x02C8, r19
    1548:	20 93 c7 02 	sts	0x02C7, r18
    154c:	20 c0       	rjmp	.+64     	; 0x158e <main+0x8be>
    154e:	01 37       	cpi	r16, 0x71	; 113
    1550:	e1 e0       	ldi	r30, 0x01	; 1
    1552:	1e 07       	cpc	r17, r30
    1554:	e0 f0       	brcs	.+56     	; 0x158e <main+0x8be>
    1556:	98 01       	movw	r18, r16
    1558:	ad e7       	ldi	r26, 0x7D	; 125
    155a:	b0 e0       	ldi	r27, 0x00	; 0
    155c:	24 d4       	rcall	.+2120   	; 0x1da6 <__umulhisi3>
    155e:	ab 01       	movw	r20, r22
    1560:	bc 01       	movw	r22, r24
    1562:	4d 52       	subi	r20, 0x2D	; 45
    1564:	54 4b       	sbci	r21, 0xB4	; 180
    1566:	61 09       	sbc	r22, r1
    1568:	71 09       	sbc	r23, r1
    156a:	2d e7       	ldi	r18, 0x7D	; 125
    156c:	30 e0       	ldi	r19, 0x00	; 0
    156e:	80 e0       	ldi	r24, 0x00	; 0
    1570:	be d6       	rcall	.+3452   	; 0x22ee <_etext+0x466>
    1572:	8d 37       	cpi	r24, 0x7D	; 125
    1574:	91 05       	cpc	r25, r1
    1576:	18 f0       	brcs	.+6      	; 0x157e <main+0x8ae>
    1578:	0f 5f       	subi	r16, 0xFF	; 255
    157a:	1f 4f       	sbci	r17, 0xFF	; 255
    157c:	02 c0       	rjmp	.+4      	; 0x1582 <main+0x8b2>
    157e:	00 e0       	ldi	r16, 0x00	; 0
    1580:	10 e0       	ldi	r17, 0x00	; 0
    1582:	10 93 43 03 	sts	0x0343, r17
    1586:	00 93 44 03 	sts	0x0344, r16
    158a:	80 93 45 03 	sts	0x0345, r24
    158e:	a0 e8       	ldi	r26, 0x80	; 128
    1590:	aa 2e       	mov	r10, r26
    1592:	b1 2c       	mov	r11, r1
    1594:	c5 01       	movw	r24, r10
    1596:	45 ce       	rjmp	.-886    	; 0x1222 <main+0x552>
    1598:	10 92 cc 03 	sts	0x03CC, r1
    159c:	80 e1       	ldi	r24, 0x10	; 16
    159e:	80 93 c6 02 	sts	0x02C6, r24
    15a2:	80 91 db 03 	lds	r24, 0x03DB
    15a6:	87 ff       	sbrs	r24, 7
    15a8:	03 c0       	rjmp	.+6      	; 0x15b0 <main+0x8e0>
    15aa:	90 e9       	ldi	r25, 0x90	; 144
    15ac:	90 93 c6 02 	sts	0x02C6, r25
    15b0:	85 ff       	sbrs	r24, 5
    15b2:	05 c0       	rjmp	.+10     	; 0x15be <main+0x8ee>
    15b4:	90 91 c6 02 	lds	r25, 0x02C6
    15b8:	90 62       	ori	r25, 0x20	; 32
    15ba:	90 93 c6 02 	sts	0x02C6, r25
    15be:	82 ff       	sbrs	r24, 2
    15c0:	08 c0       	rjmp	.+16     	; 0x15d2 <main+0x902>
    15c2:	90 91 c6 02 	lds	r25, 0x02C6
    15c6:	94 60       	ori	r25, 0x04	; 4
    15c8:	90 93 c6 02 	sts	0x02C6, r25
    15cc:	8b 7f       	andi	r24, 0xFB	; 251
    15ce:	80 93 db 03 	sts	0x03DB, r24
    15d2:	83 9b       	sbis	0x10, 3	; 16
    15d4:	05 c0       	rjmp	.+10     	; 0x15e0 <main+0x910>
    15d6:	80 91 c6 02 	lds	r24, 0x02C6
    15da:	88 60       	ori	r24, 0x08	; 8
    15dc:	80 93 c6 02 	sts	0x02C6, r24
    15e0:	8f ef       	ldi	r24, 0xFF	; 255
    15e2:	80 93 c7 02 	sts	0x02C7, r24
    15e6:	80 ee       	ldi	r24, 0xE0	; 224
    15e8:	80 93 c8 02 	sts	0x02C8, r24
    15ec:	10 92 c9 02 	sts	0x02C9, r1
    15f0:	84 e0       	ldi	r24, 0x04	; 4
    15f2:	90 e0       	ldi	r25, 0x00	; 0
    15f4:	16 ce       	rjmp	.-980    	; 0x1222 <main+0x552>
    15f6:	81 e4       	ldi	r24, 0x41	; 65
    15f8:	85 d5       	rcall	.+2826   	; 0x2104 <_etext+0x27c>
    15fa:	f4 e0       	ldi	r31, 0x04	; 4
    15fc:	f7 15       	cp	r31, r7
    15fe:	60 f4       	brcc	.+24     	; 0x1618 <main+0x948>
    1600:	8a 85       	ldd	r24, Y+10	; 0x0a
    1602:	90 e0       	ldi	r25, 0x00	; 0
    1604:	fc 01       	movw	r30, r24
    1606:	e0 5c       	subi	r30, 0xC0	; 192
    1608:	f1 09       	sbc	r31, r1
    160a:	e0 34       	cpi	r30, 0x40	; 64
    160c:	f1 05       	cpc	r31, r1
    160e:	08 f0       	brcs	.+2      	; 0x1612 <main+0x942>
    1610:	c4 c3       	rjmp	.+1928   	; 0x1d9a <main+0x10ca>
    1612:	ed 5e       	subi	r30, 0xED	; 237
    1614:	ff 4f       	sbci	r31, 0xFF	; 255
    1616:	09 94       	ijmp
    1618:	ad ec       	ldi	r26, 0xCD	; 205
    161a:	b3 e0       	ldi	r27, 0x03	; 3
    161c:	2f e0       	ldi	r18, 0x0F	; 15
    161e:	72 9e       	mul	r7, r18
    1620:	f0 01       	movw	r30, r0
    1622:	11 24       	eor	r1, r1
    1624:	e0 5a       	subi	r30, 0xA0	; 160
    1626:	ff 4f       	sbci	r31, 0xFF	; 255
    1628:	8d 91       	ld	r24, X+
    162a:	81 93       	st	Z+, r24
    162c:	33 e0       	ldi	r19, 0x03	; 3
    162e:	ac 3d       	cpi	r26, 0xDC	; 220
    1630:	b3 07       	cpc	r27, r19
    1632:	d1 f7       	brne	.-12     	; 0x1628 <main+0x958>
    1634:	e5 cf       	rjmp	.-54     	; 0x1600 <main+0x930>
    1636:	00 e0       	ldi	r16, 0x00	; 0
    1638:	10 e0       	ldi	r17, 0x00	; 0
    163a:	0a c2       	rjmp	.+1044   	; 0x1a50 <main+0xd80>
    163c:	97 d7       	rcall	.+3886   	; 0x256c <_etext+0x6e4>
    163e:	8b 85       	ldd	r24, Y+11	; 0x0b
    1640:	9c 85       	ldd	r25, Y+12	; 0x0c
    1642:	f2 ed       	ldi	r31, 0xD2	; 210
    1644:	af 2e       	mov	r10, r31
    1646:	f2 e0       	ldi	r31, 0x02	; 2
    1648:	bf 2e       	mov	r11, r31
    164a:	8c 01       	movw	r16, r24
    164c:	0f 5f       	subi	r16, 0xFF	; 255
    164e:	1f 4f       	sbci	r17, 0xFF	; 255
    1650:	60 e0       	ldi	r22, 0x00	; 0
    1652:	69 d9       	rcall	.-3374   	; 0x926 <fatGetDirEntry>
    1654:	88 23       	and	r24, r24
    1656:	e1 f0       	breq	.+56     	; 0x1690 <main+0x9c0>
    1658:	82 ec       	ldi	r24, 0xC2	; 194
    165a:	a8 16       	cp	r10, r24
    165c:	83 e0       	ldi	r24, 0x03	; 3
    165e:	b8 06       	cpc	r11, r24
    1660:	29 f4       	brne	.+10     	; 0x166c <main+0x99c>
    1662:	80 91 c6 02 	lds	r24, 0x02C6
    1666:	80 93 c2 03 	sts	0x03C2, r24
    166a:	12 c0       	rjmp	.+36     	; 0x1690 <main+0x9c0>
    166c:	d5 01       	movw	r26, r10
    166e:	e6 ec       	ldi	r30, 0xC6	; 198
    1670:	f2 e0       	ldi	r31, 0x02	; 2
    1672:	81 91       	ld	r24, Z+
    1674:	8d 93       	st	X+, r24
    1676:	92 e0       	ldi	r25, 0x02	; 2
    1678:	e1 3d       	cpi	r30, 0xD1	; 209
    167a:	f9 07       	cpc	r31, r25
    167c:	d1 f7       	brne	.-12     	; 0x1672 <main+0x9a2>
    167e:	80 91 c7 03 	lds	r24, 0x03C7
    1682:	f5 01       	movw	r30, r10
    1684:	83 87       	std	Z+11, r24	; 0x0b
    1686:	fc e0       	ldi	r31, 0x0C	; 12
    1688:	af 0e       	add	r10, r31
    168a:	b1 1c       	adc	r11, r1
    168c:	c8 01       	movw	r24, r16
    168e:	dd cf       	rjmp	.-70     	; 0x164a <main+0x97a>
    1690:	a6 ec       	ldi	r26, 0xC6	; 198
    1692:	b2 e0       	ldi	r27, 0x02	; 2
    1694:	e2 ed       	ldi	r30, 0xD2	; 210
    1696:	f2 e0       	ldi	r31, 0x02	; 2
    1698:	81 91       	ld	r24, Z+
    169a:	8d 93       	st	X+, r24
    169c:	23 e0       	ldi	r18, 0x03	; 3
    169e:	e3 3c       	cpi	r30, 0xC3	; 195
    16a0:	f2 07       	cpc	r31, r18
    16a2:	d1 f7       	brne	.-12     	; 0x1698 <main+0x9c8>
    16a4:	81 ef       	ldi	r24, 0xF1	; 241
    16a6:	90 e0       	ldi	r25, 0x00	; 0
    16a8:	a4 c2       	rjmp	.+1352   	; 0x1bf2 <main+0xf22>
    16aa:	8b 85       	ldd	r24, Y+11	; 0x0b
    16ac:	8a 3f       	cpi	r24, 0xFA	; 250
    16ae:	08 f0       	brcs	.+2      	; 0x16b2 <main+0x9e2>
    16b0:	74 c3       	rjmp	.+1768   	; 0x1d9a <main+0x10ca>
    16b2:	8b 83       	std	Y+3, r24	; 0x03
    16b4:	1a 82       	std	Y+2, r1	; 0x02
    16b6:	ff da       	rcall	.-2562   	; 0xcb6 <Delay800us>
    16b8:	83 e4       	ldi	r24, 0x43	; 67
    16ba:	24 d5       	rcall	.+2632   	; 0x2104 <_etext+0x27c>
    16bc:	ef e0       	ldi	r30, 0x0F	; 15
    16be:	7e 2e       	mov	r7, r30
    16c0:	4b cc       	rjmp	.-1898   	; 0xf58 <main+0x288>
    16c2:	8b 85       	ldd	r24, Y+11	; 0x0b
    16c4:	8c 83       	std	Y+4, r24	; 0x04
    16c6:	d9 c2       	rjmp	.+1458   	; 0x1c7a <main+0xfaa>
    16c8:	e5 eb       	ldi	r30, 0xB5	; 181
    16ca:	f0 e0       	ldi	r31, 0x00	; 0
    16cc:	a6 ec       	ldi	r26, 0xC6	; 198
    16ce:	b2 e0       	ldi	r27, 0x02	; 2
    16d0:	81 91       	ld	r24, Z+
    16d2:	8d 93       	st	X+, r24
    16d4:	30 e0       	ldi	r19, 0x00	; 0
    16d6:	e2 3c       	cpi	r30, 0xC2	; 194
    16d8:	f3 07       	cpc	r31, r19
    16da:	d1 f7       	brne	.-12     	; 0x16d0 <main+0xa00>
    16dc:	ed ec       	ldi	r30, 0xCD	; 205
    16de:	f3 e0       	ldi	r31, 0x03	; 3
    16e0:	a3 ed       	ldi	r26, 0xD3	; 211
    16e2:	b2 e0       	ldi	r27, 0x02	; 2
    16e4:	81 91       	ld	r24, Z+
    16e6:	8d 93       	st	X+, r24
    16e8:	83 e0       	ldi	r24, 0x03	; 3
    16ea:	ec 3d       	cpi	r30, 0xDC	; 220
    16ec:	f8 07       	cpc	r31, r24
    16ee:	d1 f7       	brne	.-12     	; 0x16e4 <main+0xa14>
    16f0:	8c e1       	ldi	r24, 0x1C	; 28
    16f2:	90 e0       	ldi	r25, 0x00	; 0
    16f4:	7e c2       	rjmp	.+1276   	; 0x1bf2 <main+0xf22>
    16f6:	80 91 db 03 	lds	r24, 0x03DB
    16fa:	80 93 c6 02 	sts	0x02C6, r24
    16fe:	81 e0       	ldi	r24, 0x01	; 1
    1700:	90 e0       	ldi	r25, 0x00	; 0
    1702:	77 c2       	rjmp	.+1262   	; 0x1bf2 <main+0xf22>
    1704:	8b 85       	ldd	r24, Y+11	; 0x0b
    1706:	9c 85       	ldd	r25, Y+12	; 0x0c
    1708:	24 d8       	rcall	.-4024   	; 0x752 <fatClustToSect>
    170a:	60 93 c6 02 	sts	0x02C6, r22
    170e:	70 93 c7 02 	sts	0x02C7, r23
    1712:	80 93 c8 02 	sts	0x02C8, r24
    1716:	90 93 c9 02 	sts	0x02C9, r25
    171a:	84 e0       	ldi	r24, 0x04	; 4
    171c:	90 e0       	ldi	r25, 0x00	; 0
    171e:	69 c2       	rjmp	.+1234   	; 0x1bf2 <main+0xf22>
    1720:	64 e0       	ldi	r22, 0x04	; 4
    1722:	70 e0       	ldi	r23, 0x00	; 0
    1724:	86 ec       	ldi	r24, 0xC6	; 198
    1726:	92 e0       	ldi	r25, 0x02	; 2
    1728:	2e d5       	rcall	.+2652   	; 0x2186 <_etext+0x2fe>
    172a:	81 11       	cpse	r24, r1
    172c:	63 c2       	rjmp	.+1222   	; 0x1bf4 <main+0xf24>
    172e:	60 91 c6 02 	lds	r22, 0x02C6
    1732:	70 91 c7 02 	lds	r23, 0x02C7
    1736:	80 91 c8 02 	lds	r24, 0x02C8
    173a:	90 91 c9 02 	lds	r25, 0x02C9
    173e:	6d 83       	std	Y+5, r22	; 0x05
    1740:	7e 83       	std	Y+6, r23	; 0x06
    1742:	8f 83       	std	Y+7, r24	; 0x07
    1744:	98 87       	std	Y+8, r25	; 0x08
    1746:	72 d5       	rcall	.+2788   	; 0x222c <_etext+0x3a4>
    1748:	98 c2       	rjmp	.+1328   	; 0x1c7a <main+0xfaa>
    174a:	6d 81       	ldd	r22, Y+5	; 0x05
    174c:	7e 81       	ldd	r23, Y+6	; 0x06
    174e:	8f 81       	ldd	r24, Y+7	; 0x07
    1750:	98 85       	ldd	r25, Y+8	; 0x08
    1752:	6c d5       	rcall	.+2776   	; 0x222c <_etext+0x3a4>
    1754:	b0 da       	rcall	.-2720   	; 0xcb6 <Delay800us>
    1756:	83 e4       	ldi	r24, 0x43	; 67
    1758:	d5 d4       	rcall	.+2474   	; 0x2104 <_etext+0x27c>
    175a:	ad da       	rcall	.-2726   	; 0xcb6 <Delay800us>
    175c:	60 e0       	ldi	r22, 0x00	; 0
    175e:	72 e0       	ldi	r23, 0x02	; 2
    1760:	82 ec       	ldi	r24, 0xC2	; 194
    1762:	90 e0       	ldi	r25, 0x00	; 0
    1764:	b1 d4       	rcall	.+2402   	; 0x20c8 <_etext+0x240>
    1766:	18 2f       	mov	r17, r24
    1768:	60 e0       	ldi	r22, 0x00	; 0
    176a:	72 e0       	ldi	r23, 0x02	; 2
    176c:	82 ec       	ldi	r24, 0xC2	; 194
    176e:	90 e0       	ldi	r25, 0x00	; 0
    1770:	d1 d4       	rcall	.+2466   	; 0x2114 <_etext+0x28c>
    1772:	81 2f       	mov	r24, r17
    1774:	16 c0       	rjmp	.+44     	; 0x17a2 <main+0xad2>
    1776:	8d 80       	ldd	r8, Y+5	; 0x05
    1778:	9e 80       	ldd	r9, Y+6	; 0x06
    177a:	af 80       	ldd	r10, Y+7	; 0x07
    177c:	b8 84       	ldd	r11, Y+8	; 0x08
    177e:	c5 01       	movw	r24, r10
    1780:	b4 01       	movw	r22, r8
    1782:	54 d5       	rcall	.+2728   	; 0x222c <_etext+0x3a4>
    1784:	40 e1       	ldi	r20, 0x10	; 16
    1786:	60 e0       	ldi	r22, 0x00	; 0
    1788:	72 e0       	ldi	r23, 0x02	; 2
    178a:	82 ec       	ldi	r24, 0xC2	; 194
    178c:	90 e0       	ldi	r25, 0x00	; 0
    178e:	d5 d4       	rcall	.+2474   	; 0x213a <_etext+0x2b2>
    1790:	8a 8b       	std	Y+18, r24	; 0x12
    1792:	93 da       	rcall	.-2778   	; 0xcba <Delay1000us>
    1794:	8a 89       	ldd	r24, Y+18	; 0x12
    1796:	88 23       	and	r24, r24
    1798:	31 f0       	breq	.+12     	; 0x17a6 <main+0xad6>
    179a:	c5 01       	movw	r24, r10
    179c:	b4 01       	movw	r22, r8
    179e:	46 d5       	rcall	.+2700   	; 0x222c <_etext+0x3a4>
    17a0:	8e e4       	ldi	r24, 0x4E	; 78
    17a2:	b0 d4       	rcall	.+2400   	; 0x2104 <_etext+0x27c>
    17a4:	27 c2       	rjmp	.+1102   	; 0x1bf4 <main+0xf24>
    17a6:	81 e4       	ldi	r24, 0x41	; 65
    17a8:	ad d4       	rcall	.+2394   	; 0x2104 <_etext+0x27c>
    17aa:	80 e0       	ldi	r24, 0x00	; 0
    17ac:	15 d5       	rcall	.+2602   	; 0x21d8 <_etext+0x350>
    17ae:	81 11       	cpse	r24, r1
    17b0:	f4 c2       	rjmp	.+1512   	; 0x1d9a <main+0x10ca>
    17b2:	63 c2       	rjmp	.+1222   	; 0x1c7a <main+0xfaa>
    17b4:	7b 84       	ldd	r7, Y+11	; 0x0b
    17b6:	77 20       	and	r7, r7
    17b8:	09 f4       	brne	.+2      	; 0x17bc <main+0xaec>
    17ba:	5f c2       	rjmp	.+1214   	; 0x1c7a <main+0xfaa>
    17bc:	6d e6       	ldi	r22, 0x6D	; 109
    17be:	86 2e       	mov	r8, r22
    17c0:	60 e0       	ldi	r22, 0x00	; 0
    17c2:	96 2e       	mov	r9, r22
    17c4:	76 ec       	ldi	r23, 0xC6	; 198
    17c6:	a7 2e       	mov	r10, r23
    17c8:	72 e0       	ldi	r23, 0x02	; 2
    17ca:	b7 2e       	mov	r11, r23
    17cc:	84 01       	movw	r16, r8
    17ce:	80 2f       	mov	r24, r16
    17d0:	88 19       	sub	r24, r8
    17d2:	87 15       	cp	r24, r7
    17d4:	40 f4       	brcc	.+16     	; 0x17e6 <main+0xb16>
    17d6:	c8 01       	movw	r24, r16
    17d8:	4d d3       	rcall	.+1690   	; 0x1e74 <__eerd_byte_m8>
    17da:	f5 01       	movw	r30, r10
    17dc:	81 93       	st	Z+, r24
    17de:	5f 01       	movw	r10, r30
    17e0:	0f 5f       	subi	r16, 0xFF	; 255
    17e2:	1f 4f       	sbci	r17, 0xFF	; 255
    17e4:	f4 cf       	rjmp	.-24     	; 0x17ce <main+0xafe>
    17e6:	87 2d       	mov	r24, r7
    17e8:	03 c2       	rjmp	.+1030   	; 0x1bf0 <main+0xf20>
    17ea:	18 d5       	rcall	.+2608   	; 0x221c <_etext+0x394>
    17ec:	64 da       	rcall	.-2872   	; 0xcb6 <Delay800us>
    17ee:	83 e4       	ldi	r24, 0x43	; 67
    17f0:	89 d4       	rcall	.+2322   	; 0x2104 <_etext+0x27c>
    17f2:	8b 85       	ldd	r24, Y+11	; 0x0b
    17f4:	81 11       	cpse	r24, r1
    17f6:	dd ca       	rjmp	.-2630   	; 0xdb2 <main+0xe2>
    17f8:	a3 ca       	rjmp	.-2746   	; 0xd40 <main+0x70>
    17fa:	eb 85       	ldd	r30, Y+11	; 0x0b
    17fc:	e5 30       	cpi	r30, 0x05	; 5
    17fe:	08 f0       	brcs	.+2      	; 0x1802 <main+0xb32>
    1800:	cc c2       	rjmp	.+1432   	; 0x1d9a <main+0x10ca>
    1802:	2f e0       	ldi	r18, 0x0F	; 15
    1804:	e2 9f       	mul	r30, r18
    1806:	f0 01       	movw	r30, r0
    1808:	11 24       	eor	r1, r1
    180a:	e0 5a       	subi	r30, 0xA0	; 160
    180c:	ff 4f       	sbci	r31, 0xFF	; 255
    180e:	86 85       	ldd	r24, Z+14	; 0x0e
    1810:	8e 7f       	andi	r24, 0xFE	; 254
    1812:	86 87       	std	Z+14, r24	; 0x0e
    1814:	32 c2       	rjmp	.+1124   	; 0x1c7a <main+0xfaa>
    1816:	eb 85       	ldd	r30, Y+11	; 0x0b
    1818:	e5 30       	cpi	r30, 0x05	; 5
    181a:	08 f0       	brcs	.+2      	; 0x181e <main+0xb4e>
    181c:	be c2       	rjmp	.+1404   	; 0x1d9a <main+0x10ca>
    181e:	3f e0       	ldi	r19, 0x0F	; 15
    1820:	e3 9f       	mul	r30, r19
    1822:	f0 01       	movw	r30, r0
    1824:	11 24       	eor	r1, r1
    1826:	e0 5a       	subi	r30, 0xA0	; 160
    1828:	ff 4f       	sbci	r31, 0xFF	; 255
    182a:	86 85       	ldd	r24, Z+14	; 0x0e
    182c:	80 fd       	sbrc	r24, 0
    182e:	06 c0       	rjmp	.+12     	; 0x183c <main+0xb6c>
    1830:	8e e0       	ldi	r24, 0x0E	; 14
    1832:	90 e0       	ldi	r25, 0x00	; 0
    1834:	92 d6       	rcall	.+3364   	; 0x255a <_etext+0x6d2>
    1836:	8e e0       	ldi	r24, 0x0E	; 14
    1838:	90 e0       	ldi	r25, 0x00	; 0
    183a:	db c1       	rjmp	.+950    	; 0x1bf2 <main+0xf22>
    183c:	ad ec       	ldi	r26, 0xCD	; 205
    183e:	b3 e0       	ldi	r27, 0x03	; 3
    1840:	81 91       	ld	r24, Z+
    1842:	8d 93       	st	X+, r24
    1844:	83 e0       	ldi	r24, 0x03	; 3
    1846:	ac 3d       	cpi	r26, 0xDC	; 220
    1848:	b8 07       	cpc	r27, r24
    184a:	d1 f7       	brne	.-12     	; 0x1840 <main+0xb70>
    184c:	90 91 d5 03 	lds	r25, 0x03D5
    1850:	80 91 d6 03 	lds	r24, 0x03D6
    1854:	9b 87       	std	Y+11, r25	; 0x0b
    1856:	8c 87       	std	Y+12, r24	; 0x0c
    1858:	60 e0       	ldi	r22, 0x00	; 0
    185a:	8b 85       	ldd	r24, Y+11	; 0x0b
    185c:	9c 85       	ldd	r25, Y+12	; 0x0c
    185e:	63 d8       	rcall	.-3898   	; 0x926 <fatGetDirEntry>
    1860:	b8 2e       	mov	r11, r24
    1862:	29 c0       	rjmp	.+82     	; 0x18b6 <main+0xbe6>
    1864:	6b e0       	ldi	r22, 0x0B	; 11
    1866:	70 e0       	ldi	r23, 0x00	; 0
    1868:	8b eb       	ldi	r24, 0xBB	; 187
    186a:	93 e0       	ldi	r25, 0x03	; 3
    186c:	8c d4       	rcall	.+2328   	; 0x2186 <_etext+0x2fe>
    186e:	81 11       	cpse	r24, r1
    1870:	c1 c1       	rjmp	.+898    	; 0x1bf4 <main+0xf24>
    1872:	8c 85       	ldd	r24, Y+12	; 0x0c
    1874:	88 23       	and	r24, r24
    1876:	09 f4       	brne	.+2      	; 0x187a <main+0xbaa>
    1878:	00 c2       	rjmp	.+1024   	; 0x1c7a <main+0xfaa>
    187a:	8b 85       	ldd	r24, Y+11	; 0x0b
    187c:	80 6f       	ori	r24, 0xF0	; 240
    187e:	8a 87       	std	Y+10, r24	; 0x0a
    1880:	1c 86       	std	Y+12, r1	; 0x0c
    1882:	1b 86       	std	Y+11, r1	; 0x0b
    1884:	0b 85       	ldd	r16, Y+11	; 0x0b
    1886:	1c 85       	ldd	r17, Y+12	; 0x0c
    1888:	60 e0       	ldi	r22, 0x00	; 0
    188a:	c8 01       	movw	r24, r16
    188c:	4c d8       	rcall	.-3944   	; 0x926 <fatGetDirEntry>
    188e:	88 23       	and	r24, r24
    1890:	09 f4       	brne	.+2      	; 0x1894 <main+0xbc4>
    1892:	90 c1       	rjmp	.+800    	; 0x1bb4 <main+0xee4>
    1894:	eb eb       	ldi	r30, 0xBB	; 187
    1896:	f3 e0       	ldi	r31, 0x03	; 3
    1898:	81 91       	ld	r24, Z+
    189a:	81 11       	cpse	r24, r1
    189c:	6c c1       	rjmp	.+728    	; 0x1b76 <main+0xea6>
    189e:	23 e0       	ldi	r18, 0x03	; 3
    18a0:	e6 3c       	cpi	r30, 0xC6	; 198
    18a2:	f2 07       	cpc	r31, r18
    18a4:	c9 f7       	brne	.-14     	; 0x1898 <main+0xbc8>
    18a6:	8a 85       	ldd	r24, Y+10	; 0x0a
    18a8:	80 3f       	cpi	r24, 0xF0	; 240
    18aa:	08 f0       	brcs	.+2      	; 0x18ae <main+0xbde>
    18ac:	73 c1       	rjmp	.+742    	; 0x1b94 <main+0xec4>
    18ae:	83 ee       	ldi	r24, 0xE3	; 227
    18b0:	8a 87       	std	Y+10, r24	; 0x0a
    18b2:	bb 24       	eor	r11, r11
    18b4:	b3 94       	inc	r11
    18b6:	40 91 c7 03 	lds	r20, 0x03C7
    18ba:	40 93 d1 02 	sts	0x02D1, r20
    18be:	8a 85       	ldd	r24, Y+10	; 0x0a
    18c0:	83 3e       	cpi	r24, 0xE3	; 227
    18c2:	51 f4       	brne	.+20     	; 0x18d8 <main+0xc08>
    18c4:	80 91 d5 03 	lds	r24, 0x03D5
    18c8:	90 91 d6 03 	lds	r25, 0x03D6
    18cc:	90 93 d3 02 	sts	0x02D3, r25
    18d0:	80 93 d2 02 	sts	0x02D2, r24
    18d4:	1e e0       	ldi	r17, 0x0E	; 14
    18d6:	90 c0       	rjmp	.+288    	; 0x19f8 <main+0xd28>
    18d8:	85 3e       	cpi	r24, 0xE5	; 229
    18da:	09 f0       	breq	.+2      	; 0x18de <main+0xc0e>
    18dc:	8c c0       	rjmp	.+280    	; 0x19f6 <main+0xd26>
    18de:	60 91 d7 03 	lds	r22, 0x03D7
    18e2:	70 91 d8 03 	lds	r23, 0x03D8
    18e6:	80 91 d9 03 	lds	r24, 0x03D9
    18ea:	90 91 da 03 	lds	r25, 0x03DA
    18ee:	60 93 d2 02 	sts	0x02D2, r22
    18f2:	70 93 d3 02 	sts	0x02D3, r23
    18f6:	80 93 d4 02 	sts	0x02D4, r24
    18fa:	90 93 d5 02 	sts	0x02D5, r25
    18fe:	20 91 c8 03 	lds	r18, 0x03C8
    1902:	a0 90 c9 03 	lds	r10, 0x03C9
    1906:	20 93 d6 02 	sts	0x02D6, r18
    190a:	a0 92 d7 02 	sts	0x02D7, r10
    190e:	20 91 ca 03 	lds	r18, 0x03CA
    1912:	30 91 cb 03 	lds	r19, 0x03CB
    1916:	30 93 d9 02 	sts	0x02D9, r19
    191a:	20 93 d8 02 	sts	0x02D8, r18
    191e:	ea ed       	ldi	r30, 0xDA	; 218
    1920:	f2 e0       	ldi	r31, 0x02	; 2
    1922:	20 e2       	ldi	r18, 0x20	; 32
    1924:	21 93       	st	Z+, r18
    1926:	32 e0       	ldi	r19, 0x02	; 2
    1928:	e8 3f       	cpi	r30, 0xF8	; 248
    192a:	f3 07       	cpc	r31, r19
    192c:	d9 f7       	brne	.-10     	; 0x1924 <main+0xc54>
    192e:	48 71       	andi	r20, 0x18	; 24
    1930:	19 f4       	brne	.+6      	; 0x1938 <main+0xc68>
    1932:	20 e3       	ldi	r18, 0x30	; 48
    1934:	20 93 e3 02 	sts	0x02E3, r18
    1938:	03 ee       	ldi	r16, 0xE3	; 227
    193a:	12 e0       	ldi	r17, 0x02	; 2
    193c:	61 15       	cp	r22, r1
    193e:	71 05       	cpc	r23, r1
    1940:	81 05       	cpc	r24, r1
    1942:	91 05       	cpc	r25, r1
    1944:	51 f0       	breq	.+20     	; 0x195a <main+0xc8a>
    1946:	2a e0       	ldi	r18, 0x0A	; 10
    1948:	30 e0       	ldi	r19, 0x00	; 0
    194a:	40 e0       	ldi	r20, 0x00	; 0
    194c:	50 e0       	ldi	r21, 0x00	; 0
    194e:	70 d2       	rcall	.+1248   	; 0x1e30 <__udivmodsi4>
    1950:	60 63       	ori	r22, 0x30	; 48
    1952:	f8 01       	movw	r30, r16
    1954:	60 83       	st	Z, r22
    1956:	b9 01       	movw	r22, r18
    1958:	ca 01       	movw	r24, r20
    195a:	01 50       	subi	r16, 0x01	; 1
    195c:	11 09       	sbc	r17, r1
    195e:	f2 e0       	ldi	r31, 0x02	; 2
    1960:	09 3d       	cpi	r16, 0xD9	; 217
    1962:	1f 07       	cpc	r17, r31
    1964:	59 f7       	brne	.-42     	; 0x193c <main+0xc6c>
    1966:	8d e2       	ldi	r24, 0x2D	; 45
    1968:	80 93 e9 02 	sts	0x02E9, r24
    196c:	80 93 ec 02 	sts	0x02EC, r24
    1970:	8a e3       	ldi	r24, 0x3A	; 58
    1972:	80 93 f2 02 	sts	0x02F2, r24
    1976:	80 93 f5 02 	sts	0x02F5, r24
    197a:	a6 94       	lsr	r10
    197c:	af 86       	std	Y+15, r10	; 0x0f
    197e:	18 8a       	std	Y+16, r1	; 0x10
    1980:	8f 85       	ldd	r24, Y+15	; 0x0f
    1982:	98 89       	ldd	r25, Y+16	; 0x10
    1984:	84 54       	subi	r24, 0x44	; 68
    1986:	98 4f       	sbci	r25, 0xF8	; 248
    1988:	64 e6       	ldi	r22, 0x64	; 100
    198a:	70 e0       	ldi	r23, 0x00	; 0
    198c:	3d d2       	rcall	.+1146   	; 0x1e08 <__udivmodhi4>
    198e:	96 2f       	mov	r25, r22
    1990:	18 2f       	mov	r17, r24
    1992:	6f e1       	ldi	r22, 0x1F	; 31
    1994:	89 2f       	mov	r24, r25
    1996:	ed d5       	rcall	.+3034   	; 0x2572 <_etext+0x6ea>
    1998:	61 e2       	ldi	r22, 0x21	; 33
    199a:	81 2f       	mov	r24, r17
    199c:	ea d5       	rcall	.+3028   	; 0x2572 <_etext+0x6ea>
    199e:	80 91 c8 03 	lds	r24, 0x03C8
    19a2:	90 91 c9 03 	lds	r25, 0x03C9
    19a6:	45 e0       	ldi	r20, 0x05	; 5
    19a8:	96 95       	lsr	r25
    19aa:	87 95       	ror	r24
    19ac:	4a 95       	dec	r20
    19ae:	e1 f7       	brne	.-8      	; 0x19a8 <main+0xcd8>
    19b0:	64 e2       	ldi	r22, 0x24	; 36
    19b2:	8f 70       	andi	r24, 0x0F	; 15
    19b4:	de d5       	rcall	.+3004   	; 0x2572 <_etext+0x6ea>
    19b6:	80 91 c8 03 	lds	r24, 0x03C8
    19ba:	67 e2       	ldi	r22, 0x27	; 39
    19bc:	8f 71       	andi	r24, 0x1F	; 31
    19be:	d9 d5       	rcall	.+2994   	; 0x2572 <_etext+0x6ea>
    19c0:	80 91 cb 03 	lds	r24, 0x03CB
    19c4:	6a e2       	ldi	r22, 0x2A	; 42
    19c6:	86 95       	lsr	r24
    19c8:	86 95       	lsr	r24
    19ca:	86 95       	lsr	r24
    19cc:	d2 d5       	rcall	.+2980   	; 0x2572 <_etext+0x6ea>
    19ce:	80 91 ca 03 	lds	r24, 0x03CA
    19d2:	90 91 cb 03 	lds	r25, 0x03CB
    19d6:	55 e0       	ldi	r21, 0x05	; 5
    19d8:	96 95       	lsr	r25
    19da:	87 95       	ror	r24
    19dc:	5a 95       	dec	r21
    19de:	e1 f7       	brne	.-8      	; 0x19d8 <main+0xd08>
    19e0:	6d e2       	ldi	r22, 0x2D	; 45
    19e2:	8f 73       	andi	r24, 0x3F	; 63
    19e4:	c6 d5       	rcall	.+2956   	; 0x2572 <_etext+0x6ea>
    19e6:	80 91 ca 03 	lds	r24, 0x03CA
    19ea:	8f 71       	andi	r24, 0x1F	; 31
    19ec:	60 e3       	ldi	r22, 0x30	; 48
    19ee:	88 0f       	add	r24, r24
    19f0:	c0 d5       	rcall	.+2944   	; 0x2572 <_etext+0x6ea>
    19f2:	12 e3       	ldi	r17, 0x32	; 50
    19f4:	01 c0       	rjmp	.+2      	; 0x19f8 <main+0xd28>
    19f6:	1c e0       	ldi	r17, 0x0C	; 12
    19f8:	b1 10       	cpse	r11, r1
    19fa:	03 c0       	rjmp	.+6      	; 0x1a02 <main+0xd32>
    19fc:	82 e3       	ldi	r24, 0x32	; 50
    19fe:	90 e0       	ldi	r25, 0x00	; 0
    1a00:	ac d5       	rcall	.+2904   	; 0x255a <_etext+0x6d2>
    1a02:	81 2f       	mov	r24, r17
    1a04:	f5 c0       	rjmp	.+490    	; 0x1bf0 <main+0xf20>
    1a06:	61 e0       	ldi	r22, 0x01	; 1
    1a08:	8b 85       	ldd	r24, Y+11	; 0x0b
    1a0a:	9c 85       	ldd	r25, Y+12	; 0x0c
    1a0c:	8c d7       	rcall	.+3864   	; 0x2926 <_etext+0xa9e>
    1a0e:	81 11       	cpse	r24, r1
    1a10:	03 c0       	rjmp	.+6      	; 0x1a18 <main+0xd48>
    1a12:	80 e0       	ldi	r24, 0x00	; 0
    1a14:	90 e0       	ldi	r25, 0x00	; 0
    1a16:	08 c0       	rjmp	.+16     	; 0x1a28 <main+0xd58>
    1a18:	e6 ec       	ldi	r30, 0xC6	; 198
    1a1a:	f2 e0       	ldi	r31, 0x02	; 2
    1a1c:	80 e0       	ldi	r24, 0x00	; 0
    1a1e:	90 e0       	ldi	r25, 0x00	; 0
    1a20:	01 96       	adiw	r24, 0x01	; 1
    1a22:	21 91       	ld	r18, Z+
    1a24:	21 11       	cpse	r18, r1
    1a26:	fc cf       	rjmp	.-8      	; 0x1a20 <main+0xd50>
    1a28:	8f 3f       	cpi	r24, 0xFF	; 255
    1a2a:	91 05       	cpc	r25, r1
    1a2c:	09 f0       	breq	.+2      	; 0x1a30 <main+0xd60>
    1a2e:	30 f4       	brcc	.+12     	; 0x1a3c <main+0xd6c>
    1a30:	fc 01       	movw	r30, r24
    1a32:	ea 53       	subi	r30, 0x3A	; 58
    1a34:	fd 4f       	sbci	r31, 0xFD	; 253
    1a36:	10 82       	st	Z, r1
    1a38:	01 96       	adiw	r24, 0x01	; 1
    1a3a:	f6 cf       	rjmp	.-20     	; 0x1a28 <main+0xd58>
    1a3c:	2a 85       	ldd	r18, Y+10	; 0x0a
    1a3e:	26 5e       	subi	r18, 0xE6	; 230
    1a40:	80 e0       	ldi	r24, 0x00	; 0
    1a42:	91 e0       	ldi	r25, 0x01	; 1
    1a44:	02 c0       	rjmp	.+4      	; 0x1a4a <main+0xd7a>
    1a46:	95 95       	asr	r25
    1a48:	87 95       	ror	r24
    1a4a:	2a 95       	dec	r18
    1a4c:	e2 f7       	brpl	.-8      	; 0x1a46 <main+0xd76>
    1a4e:	d1 c0       	rjmp	.+418    	; 0x1bf2 <main+0xf22>
    1a50:	60 e0       	ldi	r22, 0x00	; 0
    1a52:	c8 01       	movw	r24, r16
    1a54:	68 d7       	rcall	.+3792   	; 0x2926 <_etext+0xa9e>
    1a56:	88 23       	and	r24, r24
    1a58:	19 f0       	breq	.+6      	; 0x1a60 <main+0xd90>
    1a5a:	0f 5f       	subi	r16, 0xFF	; 255
    1a5c:	1f 4f       	sbci	r17, 0xFF	; 255
    1a5e:	f8 cf       	rjmp	.-16     	; 0x1a50 <main+0xd80>
    1a60:	10 93 c7 02 	sts	0x02C7, r17
    1a64:	00 93 c6 02 	sts	0x02C6, r16
    1a68:	82 e0       	ldi	r24, 0x02	; 2
    1a6a:	90 e0       	ldi	r25, 0x00	; 0
    1a6c:	c2 c0       	rjmp	.+388    	; 0x1bf2 <main+0xf22>
    1a6e:	8b 85       	ldd	r24, Y+11	; 0x0b
    1a70:	81 50       	subi	r24, 0x01	; 1
    1a72:	84 31       	cpi	r24, 0x14	; 20
    1a74:	10 f0       	brcs	.+4      	; 0x1a7a <main+0xdaa>
    1a76:	84 e1       	ldi	r24, 0x14	; 20
    1a78:	8b 87       	std	Y+11, r24	; 0x0b
    1a7a:	5b 84       	ldd	r5, Y+11	; 0x0b
    1a7c:	a0 90 cf 03 	lds	r10, 0x03CF
    1a80:	b0 90 d0 03 	lds	r11, 0x03D0
    1a84:	61 2c       	mov	r6, r1
    1a86:	3f e2       	ldi	r19, 0x2F	; 47
    1a88:	73 2e       	mov	r7, r19
    1a8a:	60 e0       	ldi	r22, 0x00	; 0
    1a8c:	80 e0       	ldi	r24, 0x00	; 0
    1a8e:	90 e0       	ldi	r25, 0x00	; 0
    1a90:	4a d7       	rcall	.+3732   	; 0x2926 <_etext+0xa9e>
    1a92:	88 23       	and	r24, r24
    1a94:	09 f4       	brne	.+2      	; 0x1a98 <main+0xdc8>
    1a96:	43 c0       	rjmp	.+134    	; 0x1b1e <main+0xe4e>
    1a98:	80 91 c7 03 	lds	r24, 0x03C7
    1a9c:	84 ff       	sbrs	r24, 4
    1a9e:	3f c0       	rjmp	.+126    	; 0x1b1e <main+0xe4e>
    1aa0:	80 91 c6 02 	lds	r24, 0x02C6
    1aa4:	8e 32       	cpi	r24, 0x2E	; 46
    1aa6:	d9 f5       	brne	.+118    	; 0x1b1e <main+0xe4e>
    1aa8:	80 91 c7 02 	lds	r24, 0x02C7
    1aac:	8e 32       	cpi	r24, 0x2E	; 46
    1aae:	b9 f5       	brne	.+110    	; 0x1b1e <main+0xe4e>
    1ab0:	51 10       	cpse	r5, r1
    1ab2:	07 c0       	rjmp	.+14     	; 0x1ac2 <main+0xdf2>
    1ab4:	e6 2d       	mov	r30, r6
    1ab6:	f0 e0       	ldi	r31, 0x00	; 0
    1ab8:	ea 53       	subi	r30, 0x3A	; 58
    1aba:	fd 4f       	sbci	r31, 0xFD	; 253
    1abc:	8f e3       	ldi	r24, 0x3F	; 63
    1abe:	80 83       	st	Z, r24
    1ac0:	2e c0       	rjmp	.+92     	; 0x1b1e <main+0xe4e>
    1ac2:	5a 94       	dec	r5
    1ac4:	80 90 cf 03 	lds	r8, 0x03CF
    1ac8:	90 90 d0 03 	lds	r9, 0x03D0
    1acc:	80 91 cd 03 	lds	r24, 0x03CD
    1ad0:	90 91 ce 03 	lds	r25, 0x03CE
    1ad4:	90 93 d0 03 	sts	0x03D0, r25
    1ad8:	80 93 cf 03 	sts	0x03CF, r24
    1adc:	00 e0       	ldi	r16, 0x00	; 0
    1ade:	10 e0       	ldi	r17, 0x00	; 0
    1ae0:	60 e0       	ldi	r22, 0x00	; 0
    1ae2:	c8 01       	movw	r24, r16
    1ae4:	20 d7       	rcall	.+3648   	; 0x2926 <_etext+0xa9e>
    1ae6:	88 23       	and	r24, r24
    1ae8:	81 f2       	breq	.-96     	; 0x1a8a <main+0xdba>
    1aea:	80 91 cd 03 	lds	r24, 0x03CD
    1aee:	90 91 ce 03 	lds	r25, 0x03CE
    1af2:	88 16       	cp	r8, r24
    1af4:	99 06       	cpc	r9, r25
    1af6:	81 f4       	brne	.+32     	; 0x1b18 <main+0xe48>
    1af8:	24 ef       	ldi	r18, 0xF4	; 244
    1afa:	62 0e       	add	r6, r18
    1afc:	e6 2d       	mov	r30, r6
    1afe:	f0 e0       	ldi	r31, 0x00	; 0
    1b00:	ea 53       	subi	r30, 0x3A	; 58
    1b02:	fd 4f       	sbci	r31, 0xFD	; 253
    1b04:	71 92       	st	Z+, r7
    1b06:	a6 ec       	ldi	r26, 0xC6	; 198
    1b08:	b2 e0       	ldi	r27, 0x02	; 2
    1b0a:	8d 91       	ld	r24, X+
    1b0c:	81 93       	st	Z+, r24
    1b0e:	32 e0       	ldi	r19, 0x02	; 2
    1b10:	a1 3d       	cpi	r26, 0xD1	; 209
    1b12:	b3 07       	cpc	r27, r19
    1b14:	d1 f7       	brne	.-12     	; 0x1b0a <main+0xe3a>
    1b16:	b9 cf       	rjmp	.-142    	; 0x1a8a <main+0xdba>
    1b18:	0f 5f       	subi	r16, 0xFF	; 255
    1b1a:	1f 4f       	sbci	r17, 0xFF	; 255
    1b1c:	e1 cf       	rjmp	.-62     	; 0x1ae0 <main+0xe10>
    1b1e:	b0 92 d0 03 	sts	0x03D0, r11
    1b22:	a0 92 cf 03 	sts	0x03CF, r10
    1b26:	26 2d       	mov	r18, r6
    1b28:	30 e0       	ldi	r19, 0x00	; 0
    1b2a:	80 e0       	ldi	r24, 0x00	; 0
    1b2c:	90 e0       	ldi	r25, 0x00	; 0
    1b2e:	b9 01       	movw	r22, r18
    1b30:	6a 53       	subi	r22, 0x3A	; 58
    1b32:	7d 4f       	sbci	r23, 0xFD	; 253
    1b34:	fb 01       	movw	r30, r22
    1b36:	e8 0f       	add	r30, r24
    1b38:	f9 1f       	adc	r31, r25
    1b3a:	40 81       	ld	r20, Z
    1b3c:	fc 01       	movw	r30, r24
    1b3e:	ea 53       	subi	r30, 0x3A	; 58
    1b40:	fd 4f       	sbci	r31, 0xFD	; 253
    1b42:	40 83       	st	Z, r20
    1b44:	01 96       	adiw	r24, 0x01	; 1
    1b46:	ac 01       	movw	r20, r24
    1b48:	42 0f       	add	r20, r18
    1b4a:	53 1f       	adc	r21, r19
    1b4c:	41 15       	cp	r20, r1
    1b4e:	51 40       	sbci	r21, 0x01	; 1
    1b50:	89 f7       	brne	.-30     	; 0x1b34 <main+0xe64>
    1b52:	21 95       	neg	r18
    1b54:	19 f4       	brne	.+6      	; 0x1b5c <main+0xe8c>
    1b56:	10 92 c6 02 	sts	0x02C6, r1
    1b5a:	21 e0       	ldi	r18, 0x01	; 1
    1b5c:	e2 2f       	mov	r30, r18
    1b5e:	f0 e0       	ldi	r31, 0x00	; 0
    1b60:	ea 53       	subi	r30, 0x3A	; 58
    1b62:	fd 4f       	sbci	r31, 0xFD	; 253
    1b64:	10 82       	st	Z, r1
    1b66:	2f 5f       	subi	r18, 0xFF	; 255
    1b68:	c9 f7       	brne	.-14     	; 0x1b5c <main+0xe8c>
    1b6a:	8b 85       	ldd	r24, Y+11	; 0x0b
    1b6c:	fc e0       	ldi	r31, 0x0C	; 12
    1b6e:	8f 9f       	mul	r24, r31
    1b70:	c0 01       	movw	r24, r0
    1b72:	11 24       	eor	r1, r1
    1b74:	3e c0       	rjmp	.+124    	; 0x1bf2 <main+0xf22>
    1b76:	df 01       	movw	r26, r30
    1b78:	a6 5f       	subi	r26, 0xF6	; 246
    1b7a:	b1 09       	sbc	r27, r1
    1b7c:	9c 91       	ld	r25, X
    1b7e:	89 17       	cp	r24, r25
    1b80:	09 f4       	brne	.+2      	; 0x1b84 <main+0xeb4>
    1b82:	8d ce       	rjmp	.-742    	; 0x189e <main+0xbce>
    1b84:	14 c0       	rjmp	.+40     	; 0x1bae <main+0xede>
    1b86:	60 e0       	ldi	r22, 0x00	; 0
    1b88:	8b 85       	ldd	r24, Y+11	; 0x0b
    1b8a:	9c 85       	ldd	r25, Y+12	; 0x0c
    1b8c:	cc d6       	rcall	.+3480   	; 0x2926 <_etext+0xa9e>
    1b8e:	88 23       	and	r24, r24
    1b90:	09 f4       	brne	.+2      	; 0x1b94 <main+0xec4>
    1b92:	03 c1       	rjmp	.+518    	; 0x1d9a <main+0x10ca>
    1b94:	20 91 c7 03 	lds	r18, 0x03C7
    1b98:	80 91 cd 03 	lds	r24, 0x03CD
    1b9c:	90 91 ce 03 	lds	r25, 0x03CE
    1ba0:	24 ff       	sbrs	r18, 4
    1ba2:	6e c0       	rjmp	.+220    	; 0x1c80 <main+0xfb0>
    1ba4:	90 93 d0 03 	sts	0x03D0, r25
    1ba8:	80 93 cf 03 	sts	0x03CF, r24
    1bac:	df c0       	rjmp	.+446    	; 0x1d6c <main+0x109c>
    1bae:	0f 5f       	subi	r16, 0xFF	; 255
    1bb0:	1f 4f       	sbci	r17, 0xFF	; 255
    1bb2:	6a ce       	rjmp	.-812    	; 0x1888 <main+0xbb8>
    1bb4:	8a 85       	ldd	r24, Y+10	; 0x0a
    1bb6:	80 3f       	cpi	r24, 0xF0	; 240
    1bb8:	08 f0       	brcs	.+2      	; 0x1bbc <main+0xeec>
    1bba:	ef c0       	rjmp	.+478    	; 0x1d9a <main+0x10ca>
    1bbc:	39 ce       	rjmp	.-910    	; 0x1830 <main+0xb60>
    1bbe:	8b 85       	ldd	r24, Y+11	; 0x0b
    1bc0:	85 30       	cpi	r24, 0x05	; 5
    1bc2:	20 f0       	brcs	.+8      	; 0x1bcc <main+0xefc>
    1bc4:	96 b3       	in	r25, 0x16	; 22
    1bc6:	93 70       	andi	r25, 0x03	; 3
    1bc8:	84 e0       	ldi	r24, 0x04	; 4
    1bca:	89 1b       	sub	r24, r25
    1bcc:	89 83       	std	Y+1, r24	; 0x01
    1bce:	aa d4       	rcall	.+2388   	; 0x2524 <_etext+0x69c>
    1bd0:	54 c0       	rjmp	.+168    	; 0x1c7a <main+0xfaa>
    1bd2:	8b 85       	ldd	r24, Y+11	; 0x0b
    1bd4:	9c 85       	ldd	r25, Y+12	; 0x0c
    1bd6:	fe 01       	movw	r30, r28
    1bd8:	31 96       	adiw	r30, 0x01	; 1
    1bda:	e9 0f       	add	r30, r25
    1bdc:	f1 1d       	adc	r31, r1
    1bde:	a6 ec       	ldi	r26, 0xC6	; 198
    1be0:	b2 e0       	ldi	r27, 0x02	; 2
    1be2:	9d 01       	movw	r18, r26
    1be4:	28 0f       	add	r18, r24
    1be6:	92 2f       	mov	r25, r18
    1be8:	21 91       	ld	r18, Z+
    1bea:	2d 93       	st	X+, r18
    1bec:	9a 13       	cpse	r25, r26
    1bee:	fc cf       	rjmp	.-8      	; 0x1be8 <main+0xf18>
    1bf0:	90 e0       	ldi	r25, 0x00	; 0
    1bf2:	e0 d2       	rcall	.+1472   	; 0x21b4 <_etext+0x32c>
    1bf4:	2f e0       	ldi	r18, 0x0F	; 15
    1bf6:	72 2e       	mov	r7, r18
    1bf8:	56 c9       	rjmp	.-3412   	; 0xea6 <main+0x1d6>
    1bfa:	60 e0       	ldi	r22, 0x00	; 0
    1bfc:	80 e0       	ldi	r24, 0x00	; 0
    1bfe:	90 e0       	ldi	r25, 0x00	; 0
    1c00:	92 d6       	rcall	.+3364   	; 0x2926 <_etext+0xa9e>
    1c02:	81 11       	cpse	r24, r1
    1c04:	04 c0       	rjmp	.+8      	; 0x1c0e <main+0xf3e>
    1c06:	8b 85       	ldd	r24, Y+11	; 0x0b
    1c08:	81 11       	cpse	r24, r1
    1c0a:	12 ce       	rjmp	.-988    	; 0x1830 <main+0xb60>
    1c0c:	36 c0       	rjmp	.+108    	; 0x1c7a <main+0xfaa>
    1c0e:	80 91 c7 03 	lds	r24, 0x03C7
    1c12:	84 ff       	sbrs	r24, 4
    1c14:	f8 cf       	rjmp	.-16     	; 0x1c06 <main+0xf36>
    1c16:	80 91 c6 02 	lds	r24, 0x02C6
    1c1a:	8e 32       	cpi	r24, 0x2E	; 46
    1c1c:	a1 f7       	brne	.-24     	; 0x1c06 <main+0xf36>
    1c1e:	80 91 c7 02 	lds	r24, 0x02C7
    1c22:	8e 32       	cpi	r24, 0x2E	; 46
    1c24:	81 f7       	brne	.-32     	; 0x1c06 <main+0xf36>
    1c26:	00 91 cf 03 	lds	r16, 0x03CF
    1c2a:	10 91 d0 03 	lds	r17, 0x03D0
    1c2e:	80 91 cd 03 	lds	r24, 0x03CD
    1c32:	90 91 ce 03 	lds	r25, 0x03CE
    1c36:	90 93 d0 03 	sts	0x03D0, r25
    1c3a:	80 93 cf 03 	sts	0x03CF, r24
    1c3e:	8b 85       	ldd	r24, Y+11	; 0x0b
    1c40:	88 23       	and	r24, r24
    1c42:	09 f3       	breq	.-62     	; 0x1c06 <main+0xf36>
    1c44:	a1 2c       	mov	r10, r1
    1c46:	b1 2c       	mov	r11, r1
    1c48:	60 e0       	ldi	r22, 0x00	; 0
    1c4a:	c5 01       	movw	r24, r10
    1c4c:	6c d6       	rcall	.+3288   	; 0x2926 <_etext+0xa9e>
    1c4e:	88 23       	and	r24, r24
    1c50:	d1 f2       	breq	.-76     	; 0x1c06 <main+0xf36>
    1c52:	80 91 cd 03 	lds	r24, 0x03CD
    1c56:	90 91 ce 03 	lds	r25, 0x03CE
    1c5a:	08 17       	cp	r16, r24
    1c5c:	19 07       	cpc	r17, r25
    1c5e:	09 f4       	brne	.+2      	; 0x1c62 <main+0xf92>
    1c60:	26 ce       	rjmp	.-948    	; 0x18ae <main+0xbde>
    1c62:	3f ef       	ldi	r19, 0xFF	; 255
    1c64:	a3 1a       	sub	r10, r19
    1c66:	b3 0a       	sbc	r11, r19
    1c68:	ef cf       	rjmp	.-34     	; 0x1c48 <main+0xf78>
    1c6a:	10 92 d0 03 	sts	0x03D0, r1
    1c6e:	10 92 cf 03 	sts	0x03CF, r1
    1c72:	60 e0       	ldi	r22, 0x00	; 0
    1c74:	80 e0       	ldi	r24, 0x00	; 0
    1c76:	90 e0       	ldi	r25, 0x00	; 0
    1c78:	56 d6       	rcall	.+3244   	; 0x2926 <_etext+0xa9e>
    1c7a:	9f e0       	ldi	r25, 0x0F	; 15
    1c7c:	79 2e       	mov	r7, r25
    1c7e:	8a c0       	rjmp	.+276    	; 0x1d94 <main+0x10c4>
    1c80:	90 93 d2 03 	sts	0x03D2, r25
    1c84:	80 93 d1 03 	sts	0x03D1, r24
    1c88:	10 92 d4 03 	sts	0x03D4, r1
    1c8c:	10 92 d3 03 	sts	0x03D3, r1
    1c90:	80 91 ce 02 	lds	r24, 0x02CE
    1c94:	81 34       	cpi	r24, 0x41	; 65
    1c96:	09 f0       	breq	.+2      	; 0x1c9a <main+0xfca>
    1c98:	41 c0       	rjmp	.+130    	; 0x1d1c <main+0x104c>
    1c9a:	80 91 cf 02 	lds	r24, 0x02CF
    1c9e:	84 35       	cpi	r24, 0x54	; 84
    1ca0:	09 f0       	breq	.+2      	; 0x1ca4 <main+0xfd4>
    1ca2:	61 c0       	rjmp	.+194    	; 0x1d66 <main+0x1096>
    1ca4:	80 91 d0 02 	lds	r24, 0x02D0
    1ca8:	82 35       	cpi	r24, 0x52	; 82
    1caa:	09 f0       	breq	.+2      	; 0x1cae <main+0xfde>
    1cac:	5c c0       	rjmp	.+184    	; 0x1d66 <main+0x1096>
    1cae:	20 e1       	ldi	r18, 0x10	; 16
    1cb0:	30 e0       	ldi	r19, 0x00	; 0
    1cb2:	40 e0       	ldi	r20, 0x00	; 0
    1cb4:	50 e0       	ldi	r21, 0x00	; 0
    1cb6:	ba 01       	movw	r22, r20
    1cb8:	80 e0       	ldi	r24, 0x00	; 0
    1cba:	19 d3       	rcall	.+1586   	; 0x22ee <_etext+0x466>
    1cbc:	81 e0       	ldi	r24, 0x01	; 1
    1cbe:	80 93 db 03 	sts	0x03DB, r24
    1cc2:	80 91 cb 02 	lds	r24, 0x02CB
    1cc6:	90 91 ca 02 	lds	r25, 0x02CA
    1cca:	89 2b       	or	r24, r25
    1ccc:	81 30       	cpi	r24, 0x01	; 1
    1cce:	19 f4       	brne	.+6      	; 0x1cd6 <main+0x1006>
    1cd0:	81 e2       	ldi	r24, 0x21	; 33
    1cd2:	80 93 db 03 	sts	0x03DB, r24
    1cd6:	60 91 d7 03 	lds	r22, 0x03D7
    1cda:	70 91 d8 03 	lds	r23, 0x03D8
    1cde:	80 91 d9 03 	lds	r24, 0x03D9
    1ce2:	90 91 da 03 	lds	r25, 0x03DA
    1ce6:	60 51       	subi	r22, 0x10	; 16
    1ce8:	71 09       	sbc	r23, r1
    1cea:	81 09       	sbc	r24, r1
    1cec:	91 09       	sbc	r25, r1
    1cee:	10 91 db 03 	lds	r17, 0x03DB
    1cf2:	15 ff       	sbrs	r17, 5
    1cf4:	05 c0       	rjmp	.+10     	; 0x1d00 <main+0x1030>
    1cf6:	20 e0       	ldi	r18, 0x00	; 0
    1cf8:	31 e0       	ldi	r19, 0x01	; 1
    1cfa:	40 e0       	ldi	r20, 0x00	; 0
    1cfc:	50 e0       	ldi	r21, 0x00	; 0
    1cfe:	04 c0       	rjmp	.+8      	; 0x1d08 <main+0x1038>
    1d00:	20 e8       	ldi	r18, 0x80	; 128
    1d02:	30 e0       	ldi	r19, 0x00	; 0
    1d04:	40 e0       	ldi	r20, 0x00	; 0
    1d06:	50 e0       	ldi	r21, 0x00	; 0
    1d08:	93 d0       	rcall	.+294    	; 0x1e30 <__udivmodsi4>
    1d0a:	21 3d       	cpi	r18, 0xD1	; 209
    1d0c:	32 40       	sbci	r19, 0x02	; 2
    1d0e:	41 05       	cpc	r20, r1
    1d10:	51 05       	cpc	r21, r1
    1d12:	60 f1       	brcs	.+88     	; 0x1d6c <main+0x109c>
    1d14:	10 68       	ori	r17, 0x80	; 128
    1d16:	10 93 db 03 	sts	0x03DB, r17
    1d1a:	28 c0       	rjmp	.+80     	; 0x1d6c <main+0x109c>
    1d1c:	88 35       	cpi	r24, 0x58	; 88
    1d1e:	19 f5       	brne	.+70     	; 0x1d66 <main+0x1096>
    1d20:	80 91 cf 02 	lds	r24, 0x02CF
    1d24:	86 34       	cpi	r24, 0x46	; 70
    1d26:	f9 f4       	brne	.+62     	; 0x1d66 <main+0x1096>
    1d28:	80 91 d0 02 	lds	r24, 0x02D0
    1d2c:	84 34       	cpi	r24, 0x44	; 68
    1d2e:	d9 f4       	brne	.+54     	; 0x1d66 <main+0x1096>
    1d30:	81 e1       	ldi	r24, 0x11	; 17
    1d32:	80 93 db 03 	sts	0x03DB, r24
    1d36:	80 91 d7 03 	lds	r24, 0x03D7
    1d3a:	90 91 d8 03 	lds	r25, 0x03D8
    1d3e:	a0 91 d9 03 	lds	r26, 0x03D9
    1d42:	b0 91 da 03 	lds	r27, 0x03DA
    1d46:	81 30       	cpi	r24, 0x01	; 1
    1d48:	e8 e6       	ldi	r30, 0x68	; 104
    1d4a:	9e 07       	cpc	r25, r30
    1d4c:	e1 e0       	ldi	r30, 0x01	; 1
    1d4e:	ae 07       	cpc	r26, r30
    1d50:	b1 05       	cpc	r27, r1
    1d52:	60 f0       	brcs	.+24     	; 0x1d6c <main+0x109c>
    1d54:	81 30       	cpi	r24, 0x01	; 1
    1d56:	98 40       	sbci	r25, 0x08	; 8
    1d58:	a2 40       	sbci	r26, 0x02	; 2
    1d5a:	b1 05       	cpc	r27, r1
    1d5c:	10 f4       	brcc	.+4      	; 0x1d62 <main+0x1092>
    1d5e:	81 e9       	ldi	r24, 0x91	; 145
    1d60:	03 c0       	rjmp	.+6      	; 0x1d68 <main+0x1098>
    1d62:	81 e3       	ldi	r24, 0x31	; 49
    1d64:	01 c0       	rjmp	.+2      	; 0x1d68 <main+0x1098>
    1d66:	81 ec       	ldi	r24, 0xC1	; 193
    1d68:	80 93 db 03 	sts	0x03DB, r24
    1d6c:	ea 85       	ldd	r30, Y+10	; 0x0a
    1d6e:	ef 70       	andi	r30, 0x0F	; 15
    1d70:	e5 30       	cpi	r30, 0x05	; 5
    1d72:	08 f0       	brcs	.+2      	; 0x1d76 <main+0x10a6>
    1d74:	82 cf       	rjmp	.-252    	; 0x1c7a <main+0xfaa>
    1d76:	ad ec       	ldi	r26, 0xCD	; 205
    1d78:	b3 e0       	ldi	r27, 0x03	; 3
    1d7a:	2f e0       	ldi	r18, 0x0F	; 15
    1d7c:	e2 9f       	mul	r30, r18
    1d7e:	f0 01       	movw	r30, r0
    1d80:	11 24       	eor	r1, r1
    1d82:	e0 5a       	subi	r30, 0xA0	; 160
    1d84:	ff 4f       	sbci	r31, 0xFF	; 255
    1d86:	8d 91       	ld	r24, X+
    1d88:	81 93       	st	Z+, r24
    1d8a:	33 e0       	ldi	r19, 0x03	; 3
    1d8c:	ac 3d       	cpi	r26, 0xDC	; 220
    1d8e:	b3 07       	cpc	r27, r19
    1d90:	d1 f7       	brne	.-12     	; 0x1d86 <main+0x10b6>
    1d92:	73 cf       	rjmp	.-282    	; 0x1c7a <main+0xfaa>
    1d94:	90 d7       	rcall	.+3872   	; 0x2cb6 <_etext+0xe2e>
    1d96:	83 e4       	ldi	r24, 0x43	; 67
    1d98:	04 c0       	rjmp	.+8      	; 0x1da2 <main+0x10d2>
    1d9a:	8f e0       	ldi	r24, 0x0F	; 15
    1d9c:	78 2e       	mov	r7, r24
    1d9e:	8b d7       	rcall	.+3862   	; 0x2cb6 <_etext+0xe2e>
    1da0:	85 e4       	ldi	r24, 0x45	; 69
    1da2:	b0 d1       	rcall	.+864    	; 0x2104 <_etext+0x27c>
    1da4:	80 c8       	rjmp	.-3840   	; 0xea6 <main+0x1d6>

00001da6 <__umulhisi3>:
    1da6:	a2 9f       	mul	r26, r18
    1da8:	b0 01       	movw	r22, r0
    1daa:	b3 9f       	mul	r27, r19
    1dac:	c0 01       	movw	r24, r0
    1dae:	a3 9f       	mul	r26, r19
    1db0:	01 d0       	rcall	.+2      	; 0x1db4 <__umulhisi3+0xe>
    1db2:	b2 9f       	mul	r27, r18
    1db4:	70 0d       	add	r23, r0
    1db6:	81 1d       	adc	r24, r1
    1db8:	11 24       	eor	r1, r1
    1dba:	91 1d       	adc	r25, r1
    1dbc:	08 95       	ret

00001dbe <__muluhisi3>:
    1dbe:	f3 df       	rcall	.-26     	; 0x1da6 <__umulhisi3>
    1dc0:	a5 9f       	mul	r26, r21
    1dc2:	90 0d       	add	r25, r0
    1dc4:	b4 9f       	mul	r27, r20
    1dc6:	90 0d       	add	r25, r0
    1dc8:	a4 9f       	mul	r26, r20
    1dca:	80 0d       	add	r24, r0
    1dcc:	91 1d       	adc	r25, r1
    1dce:	11 24       	eor	r1, r1
    1dd0:	08 95       	ret

00001dd2 <__mulsi3>:
    1dd2:	db 01       	movw	r26, r22
    1dd4:	8f 93       	push	r24
    1dd6:	9f 93       	push	r25
    1dd8:	f2 df       	rcall	.-28     	; 0x1dbe <__muluhisi3>
    1dda:	bf 91       	pop	r27
    1ddc:	af 91       	pop	r26
    1dde:	a2 9f       	mul	r26, r18
    1de0:	80 0d       	add	r24, r0
    1de2:	91 1d       	adc	r25, r1
    1de4:	a3 9f       	mul	r26, r19
    1de6:	90 0d       	add	r25, r0
    1de8:	b2 9f       	mul	r27, r18
    1dea:	90 0d       	add	r25, r0
    1dec:	11 24       	eor	r1, r1
    1dee:	08 95       	ret

00001df0 <__udivmodqi4>:
    1df0:	99 1b       	sub	r25, r25
    1df2:	79 e0       	ldi	r23, 0x09	; 9
    1df4:	04 c0       	rjmp	.+8      	; 0x1dfe <__udivmodqi4_ep>

00001df6 <__udivmodqi4_loop>:
    1df6:	99 1f       	adc	r25, r25
    1df8:	96 17       	cp	r25, r22
    1dfa:	08 f0       	brcs	.+2      	; 0x1dfe <__udivmodqi4_ep>
    1dfc:	96 1b       	sub	r25, r22

00001dfe <__udivmodqi4_ep>:
    1dfe:	88 1f       	adc	r24, r24
    1e00:	7a 95       	dec	r23
    1e02:	c9 f7       	brne	.-14     	; 0x1df6 <__udivmodqi4_loop>
    1e04:	80 95       	com	r24
    1e06:	08 95       	ret

00001e08 <__udivmodhi4>:
    1e08:	aa 1b       	sub	r26, r26
    1e0a:	bb 1b       	sub	r27, r27
    1e0c:	51 e1       	ldi	r21, 0x11	; 17
    1e0e:	07 c0       	rjmp	.+14     	; 0x1e1e <__udivmodhi4_ep>

00001e10 <__udivmodhi4_loop>:
    1e10:	aa 1f       	adc	r26, r26
    1e12:	bb 1f       	adc	r27, r27
    1e14:	a6 17       	cp	r26, r22
    1e16:	b7 07       	cpc	r27, r23
    1e18:	10 f0       	brcs	.+4      	; 0x1e1e <__udivmodhi4_ep>
    1e1a:	a6 1b       	sub	r26, r22
    1e1c:	b7 0b       	sbc	r27, r23

00001e1e <__udivmodhi4_ep>:
    1e1e:	88 1f       	adc	r24, r24
    1e20:	99 1f       	adc	r25, r25
    1e22:	5a 95       	dec	r21
    1e24:	a9 f7       	brne	.-22     	; 0x1e10 <__udivmodhi4_loop>
    1e26:	80 95       	com	r24
    1e28:	90 95       	com	r25
    1e2a:	bc 01       	movw	r22, r24
    1e2c:	cd 01       	movw	r24, r26
    1e2e:	08 95       	ret

00001e30 <__udivmodsi4>:
    1e30:	a1 e2       	ldi	r26, 0x21	; 33
    1e32:	1a 2e       	mov	r1, r26
    1e34:	aa 1b       	sub	r26, r26
    1e36:	bb 1b       	sub	r27, r27
    1e38:	fd 01       	movw	r30, r26
    1e3a:	0d c0       	rjmp	.+26     	; 0x1e56 <__udivmodsi4_ep>

00001e3c <__udivmodsi4_loop>:
    1e3c:	aa 1f       	adc	r26, r26
    1e3e:	bb 1f       	adc	r27, r27
    1e40:	ee 1f       	adc	r30, r30
    1e42:	ff 1f       	adc	r31, r31
    1e44:	a2 17       	cp	r26, r18
    1e46:	b3 07       	cpc	r27, r19
    1e48:	e4 07       	cpc	r30, r20
    1e4a:	f5 07       	cpc	r31, r21
    1e4c:	20 f0       	brcs	.+8      	; 0x1e56 <__udivmodsi4_ep>
    1e4e:	a2 1b       	sub	r26, r18
    1e50:	b3 0b       	sbc	r27, r19
    1e52:	e4 0b       	sbc	r30, r20
    1e54:	f5 0b       	sbc	r31, r21

00001e56 <__udivmodsi4_ep>:
    1e56:	66 1f       	adc	r22, r22
    1e58:	77 1f       	adc	r23, r23
    1e5a:	88 1f       	adc	r24, r24
    1e5c:	99 1f       	adc	r25, r25
    1e5e:	1a 94       	dec	r1
    1e60:	69 f7       	brne	.-38     	; 0x1e3c <__udivmodsi4_loop>
    1e62:	60 95       	com	r22
    1e64:	70 95       	com	r23
    1e66:	80 95       	com	r24
    1e68:	90 95       	com	r25
    1e6a:	9b 01       	movw	r18, r22
    1e6c:	ac 01       	movw	r20, r24
    1e6e:	bd 01       	movw	r22, r26
    1e70:	cf 01       	movw	r24, r30
    1e72:	08 95       	ret

00001e74 <__eerd_byte_m8>:
    1e74:	e1 99       	sbic	0x1c, 1	; 28
    1e76:	fe cf       	rjmp	.-4      	; 0x1e74 <__eerd_byte_m8>
    1e78:	9f bb       	out	0x1f, r25	; 31
    1e7a:	8e bb       	out	0x1e, r24	; 30
    1e7c:	e0 9a       	sbi	0x1c, 0	; 28
    1e7e:	99 27       	eor	r25, r25
    1e80:	8d b3       	in	r24, 0x1d	; 29
    1e82:	08 95       	ret

00001e84 <_exit>:
    1e84:	f8 94       	cli

00001e86 <__stop_program>:
    1e86:	ff cf       	rjmp	.-2      	; 0x1e86 <__stop_program>
